   1              		.cpu cortex-m4
   2              		.arch armv7e-m
   3              		.fpu softvfp
   4              		.eabi_attribute 20, 1
   5              		.eabi_attribute 21, 1
   6              		.eabi_attribute 23, 3
   7              		.eabi_attribute 24, 1
   8              		.eabi_attribute 25, 1
   9              		.eabi_attribute 26, 1
  10              		.eabi_attribute 30, 4
  11              		.eabi_attribute 34, 1
  12              		.eabi_attribute 18, 4
  13              		.file	"fips202.c"
  14              		.text
  15              	.Ltext0:
  16              		.cfi_sections	.debug_frame
  17              		.file 1 "fips202.c"
  18              		.section	.text.KeccakF1600_StatePermute,"ax",%progbits
  19              		.align	1
  20              		.syntax unified
  21              		.thumb
  22              		.thumb_func
  24              	KeccakF1600_StatePermute:
  25              	.LVL0:
  26              	.LFB2:
   1:fips202.c     **** /* Based on the public domain implementation in crypto_hash/keccakc512/simple/ from
   2:fips202.c     ****  * http://bench.cr.yp.to/supercop.html by Ronny Van Keer and the public domain "TweetFips202"
   3:fips202.c     ****  * implementation from https://twitter.com/tweetfips202 by Gilles Van Assche, Daniel J. Bernstein,
   4:fips202.c     ****  * and Peter Schwabe */
   5:fips202.c     **** 
   6:fips202.c     **** #include <stddef.h>
   7:fips202.c     **** #include <stdint.h>
   8:fips202.c     **** #include "fips202.h"
   9:fips202.c     **** 
  10:fips202.c     **** #define NROUNDS 24
  11:fips202.c     **** #define ROL(a, offset) ((a << offset) ^ (a >> (64-offset)))
  12:fips202.c     **** 
  13:fips202.c     **** /*************************************************
  14:fips202.c     **** * Name:        load64
  15:fips202.c     **** *
  16:fips202.c     **** * Description: Load 8 bytes into uint64_t in little-endian order
  17:fips202.c     **** *
  18:fips202.c     **** * Arguments:   - const uint8_t *x: pointer to input byte array
  19:fips202.c     **** *
  20:fips202.c     **** * Returns the loaded 64-bit unsigned integer
  21:fips202.c     **** **************************************************/
  22:fips202.c     **** static uint64_t load64(const uint8_t x[8]) {
  23:fips202.c     ****   unsigned int i;
  24:fips202.c     ****   uint64_t r = 0;
  25:fips202.c     **** 
  26:fips202.c     ****   for(i=0;i<8;i++)
  27:fips202.c     ****     r |= (uint64_t)x[i] << 8*i;
  28:fips202.c     **** 
  29:fips202.c     ****   return r;
  30:fips202.c     **** }
  31:fips202.c     **** 
  32:fips202.c     **** /*************************************************
  33:fips202.c     **** * Name:        store64
  34:fips202.c     **** *
  35:fips202.c     **** * Description: Store a 64-bit integer to array of 8 bytes in little-endian order
  36:fips202.c     **** *
  37:fips202.c     **** * Arguments:   - uint8_t *x: pointer to the output byte array (allocated)
  38:fips202.c     **** *              - uint64_t u: input 64-bit unsigned integer
  39:fips202.c     **** **************************************************/
  40:fips202.c     **** static void store64(uint8_t x[8], uint64_t u) {
  41:fips202.c     ****   unsigned int i;
  42:fips202.c     **** 
  43:fips202.c     ****   for(i=0;i<8;i++)
  44:fips202.c     ****     x[i] = u >> 8*i;
  45:fips202.c     **** }
  46:fips202.c     **** 
  47:fips202.c     **** /* Keccak round constants */
  48:fips202.c     **** static const uint64_t KeccakF_RoundConstants[NROUNDS] = {
  49:fips202.c     ****   (uint64_t)0x0000000000000001ULL,
  50:fips202.c     ****   (uint64_t)0x0000000000008082ULL,
  51:fips202.c     ****   (uint64_t)0x800000000000808aULL,
  52:fips202.c     ****   (uint64_t)0x8000000080008000ULL,
  53:fips202.c     ****   (uint64_t)0x000000000000808bULL,
  54:fips202.c     ****   (uint64_t)0x0000000080000001ULL,
  55:fips202.c     ****   (uint64_t)0x8000000080008081ULL,
  56:fips202.c     ****   (uint64_t)0x8000000000008009ULL,
  57:fips202.c     ****   (uint64_t)0x000000000000008aULL,
  58:fips202.c     ****   (uint64_t)0x0000000000000088ULL,
  59:fips202.c     ****   (uint64_t)0x0000000080008009ULL,
  60:fips202.c     ****   (uint64_t)0x000000008000000aULL,
  61:fips202.c     ****   (uint64_t)0x000000008000808bULL,
  62:fips202.c     ****   (uint64_t)0x800000000000008bULL,
  63:fips202.c     ****   (uint64_t)0x8000000000008089ULL,
  64:fips202.c     ****   (uint64_t)0x8000000000008003ULL,
  65:fips202.c     ****   (uint64_t)0x8000000000008002ULL,
  66:fips202.c     ****   (uint64_t)0x8000000000000080ULL,
  67:fips202.c     ****   (uint64_t)0x000000000000800aULL,
  68:fips202.c     ****   (uint64_t)0x800000008000000aULL,
  69:fips202.c     ****   (uint64_t)0x8000000080008081ULL,
  70:fips202.c     ****   (uint64_t)0x8000000000008080ULL,
  71:fips202.c     ****   (uint64_t)0x0000000080000001ULL,
  72:fips202.c     ****   (uint64_t)0x8000000080008008ULL
  73:fips202.c     **** };
  74:fips202.c     **** 
  75:fips202.c     **** /*************************************************
  76:fips202.c     **** * Name:        KeccakF1600_StatePermute
  77:fips202.c     **** *
  78:fips202.c     **** * Description: The Keccak F1600 Permutation
  79:fips202.c     **** *
  80:fips202.c     **** * Arguments:   - uint64_t *state: pointer to input/output Keccak state
  81:fips202.c     **** **************************************************/
  82:fips202.c     **** static void KeccakF1600_StatePermute(uint64_t state[25])
  83:fips202.c     **** {
  27              		.loc 1 83 1 view -0
  28              		.cfi_startproc
  29              		@ args = 0, pretend = 0, frame = 240
  30              		@ frame_needed = 0, uses_anonymous_args = 0
  84:fips202.c     ****         int round;
  31              		.loc 1 84 9 view .LVU1
  85:fips202.c     **** 
  86:fips202.c     ****         uint64_t Aba, Abe, Abi, Abo, Abu;
  32              		.loc 1 86 9 view .LVU2
  87:fips202.c     ****         uint64_t Aga, Age, Agi, Ago, Agu;
  33              		.loc 1 87 9 view .LVU3
  88:fips202.c     ****         uint64_t Aka, Ake, Aki, Ako, Aku;
  34              		.loc 1 88 9 view .LVU4
  89:fips202.c     ****         uint64_t Ama, Ame, Ami, Amo, Amu;
  35              		.loc 1 89 9 view .LVU5
  90:fips202.c     ****         uint64_t Asa, Ase, Asi, Aso, Asu;
  36              		.loc 1 90 9 view .LVU6
  91:fips202.c     ****         uint64_t BCa, BCe, BCi, BCo, BCu;
  37              		.loc 1 91 9 view .LVU7
  92:fips202.c     ****         uint64_t Da, De, Di, Do, Du;
  38              		.loc 1 92 9 view .LVU8
  93:fips202.c     ****         uint64_t Eba, Ebe, Ebi, Ebo, Ebu;
  39              		.loc 1 93 9 view .LVU9
  94:fips202.c     ****         uint64_t Ega, Ege, Egi, Ego, Egu;
  40              		.loc 1 94 9 view .LVU10
  95:fips202.c     ****         uint64_t Eka, Eke, Eki, Eko, Eku;
  41              		.loc 1 95 9 view .LVU11
  96:fips202.c     ****         uint64_t Ema, Eme, Emi, Emo, Emu;
  42              		.loc 1 96 9 view .LVU12
  97:fips202.c     ****         uint64_t Esa, Ese, Esi, Eso, Esu;
  43              		.loc 1 97 9 view .LVU13
  98:fips202.c     **** 
  99:fips202.c     ****         //copyFromState(A, state)
 100:fips202.c     ****         Aba = state[ 0];
  44              		.loc 1 100 9 view .LVU14
  83:fips202.c     ****         int round;
  45              		.loc 1 83 1 is_stmt 0 view .LVU15
  46 0000 2DE9F04F 		push	{r4, r5, r6, r7, r8, r9, r10, fp, lr}
  47              	.LCFI0:
  48              		.cfi_def_cfa_offset 36
  49              		.cfi_offset 4, -36
  50              		.cfi_offset 5, -32
  51              		.cfi_offset 6, -28
  52              		.cfi_offset 7, -24
  53              		.cfi_offset 8, -20
  54              		.cfi_offset 9, -16
  55              		.cfi_offset 10, -12
  56              		.cfi_offset 11, -8
  57              		.cfi_offset 14, -4
  58 0004 BDB0     		sub	sp, sp, #244
  59              	.LCFI1:
  60              		.cfi_def_cfa_offset 280
  61              		.loc 1 100 13 view .LVU16
  62 0006 0368     		ldr	r3, [r0]
  63 0008 0A93     		str	r3, [sp, #40]
  64 000a 4368     		ldr	r3, [r0, #4]
  65 000c 0B93     		str	r3, [sp, #44]
  66              	.LVL1:
 101:fips202.c     ****         Abe = state[ 1];
  67              		.loc 1 101 9 is_stmt 1 view .LVU17
  68              		.loc 1 101 13 is_stmt 0 view .LVU18
  69 000e 8368     		ldr	r3, [r0, #8]
  70              	.LVL2:
  71              		.loc 1 101 13 view .LVU19
  72 0010 0C93     		str	r3, [sp, #48]
  73 0012 C368     		ldr	r3, [r0, #12]
  74 0014 0D93     		str	r3, [sp, #52]
  75              	.LVL3:
 102:fips202.c     ****         Abi = state[ 2];
  76              		.loc 1 102 9 is_stmt 1 view .LVU20
  77              		.loc 1 102 13 is_stmt 0 view .LVU21
  78 0016 0369     		ldr	r3, [r0, #16]
  79              	.LVL4:
  80              		.loc 1 102 13 view .LVU22
  81 0018 0E93     		str	r3, [sp, #56]
  82 001a 4369     		ldr	r3, [r0, #20]
  83 001c 0F93     		str	r3, [sp, #60]
  84              	.LVL5:
 103:fips202.c     ****         Abo = state[ 3];
  85              		.loc 1 103 9 is_stmt 1 view .LVU23
  86              		.loc 1 103 13 is_stmt 0 view .LVU24
  87 001e 8369     		ldr	r3, [r0, #24]
  88              	.LVL6:
  89              		.loc 1 103 13 view .LVU25
  90 0020 1093     		str	r3, [sp, #64]
  91 0022 C369     		ldr	r3, [r0, #28]
  92 0024 1193     		str	r3, [sp, #68]
  93              	.LVL7:
 104:fips202.c     ****         Abu = state[ 4];
  94              		.loc 1 104 9 is_stmt 1 view .LVU26
  95              		.loc 1 104 13 is_stmt 0 view .LVU27
  96 0026 036A     		ldr	r3, [r0, #32]
  97              	.LVL8:
  98              		.loc 1 104 13 view .LVU28
  99 0028 1293     		str	r3, [sp, #72]
 100 002a 436A     		ldr	r3, [r0, #36]
 101 002c 1393     		str	r3, [sp, #76]
 102              	.LVL9:
 105:fips202.c     ****         Aga = state[ 5];
 103              		.loc 1 105 9 is_stmt 1 view .LVU29
 104              		.loc 1 105 13 is_stmt 0 view .LVU30
 105 002e 836A     		ldr	r3, [r0, #40]
 106              	.LVL10:
 107              		.loc 1 105 13 view .LVU31
 108 0030 1493     		str	r3, [sp, #80]
 109 0032 C36A     		ldr	r3, [r0, #44]
 110 0034 1593     		str	r3, [sp, #84]
 111              	.LVL11:
 106:fips202.c     ****         Age = state[ 6];
 112              		.loc 1 106 9 is_stmt 1 view .LVU32
 113              		.loc 1 106 13 is_stmt 0 view .LVU33
 114 0036 036B     		ldr	r3, [r0, #48]
 115              	.LVL12:
 116              		.loc 1 106 13 view .LVU34
 117 0038 1693     		str	r3, [sp, #88]
 118 003a 436B     		ldr	r3, [r0, #52]
 119 003c 1793     		str	r3, [sp, #92]
 120              	.LVL13:
 107:fips202.c     ****         Agi = state[ 7];
 121              		.loc 1 107 9 is_stmt 1 view .LVU35
 122              		.loc 1 107 13 is_stmt 0 view .LVU36
 123 003e 836B     		ldr	r3, [r0, #56]
 124              	.LVL14:
 125              		.loc 1 107 13 view .LVU37
 126 0040 1893     		str	r3, [sp, #96]
 127 0042 C36B     		ldr	r3, [r0, #60]
 128 0044 1993     		str	r3, [sp, #100]
 129              	.LVL15:
 108:fips202.c     ****         Ago = state[ 8];
 130              		.loc 1 108 9 is_stmt 1 view .LVU38
 131              		.loc 1 108 13 is_stmt 0 view .LVU39
 132 0046 036C     		ldr	r3, [r0, #64]
 133              	.LVL16:
 134              		.loc 1 108 13 view .LVU40
 135 0048 1A93     		str	r3, [sp, #104]
 136 004a 436C     		ldr	r3, [r0, #68]
 137 004c 1B93     		str	r3, [sp, #108]
 138              	.LVL17:
 109:fips202.c     ****         Agu = state[ 9];
 139              		.loc 1 109 9 is_stmt 1 view .LVU41
 140              		.loc 1 109 13 is_stmt 0 view .LVU42
 141 004e 836C     		ldr	r3, [r0, #72]
 142              	.LVL18:
 143              		.loc 1 109 13 view .LVU43
 144 0050 1C93     		str	r3, [sp, #112]
 145 0052 C36C     		ldr	r3, [r0, #76]
 146 0054 1D93     		str	r3, [sp, #116]
 147              	.LVL19:
 110:fips202.c     ****         Aka = state[10];
 148              		.loc 1 110 9 is_stmt 1 view .LVU44
 149              		.loc 1 110 13 is_stmt 0 view .LVU45
 150 0056 036D     		ldr	r3, [r0, #80]
 151              	.LVL20:
 152              		.loc 1 110 13 view .LVU46
 153 0058 1E93     		str	r3, [sp, #120]
 154 005a 436D     		ldr	r3, [r0, #84]
 155 005c 1F93     		str	r3, [sp, #124]
 156              	.LVL21:
 111:fips202.c     ****         Ake = state[11];
 157              		.loc 1 111 9 is_stmt 1 view .LVU47
 158              		.loc 1 111 13 is_stmt 0 view .LVU48
 159 005e 836D     		ldr	r3, [r0, #88]
 160              	.LVL22:
 161              		.loc 1 111 13 view .LVU49
 162 0060 2093     		str	r3, [sp, #128]
 163 0062 C36D     		ldr	r3, [r0, #92]
 164 0064 2193     		str	r3, [sp, #132]
 165              	.LVL23:
 112:fips202.c     ****         Aki = state[12];
 166              		.loc 1 112 9 is_stmt 1 view .LVU50
 167              		.loc 1 112 13 is_stmt 0 view .LVU51
 168 0066 036E     		ldr	r3, [r0, #96]
 169              	.LVL24:
 170              		.loc 1 112 13 view .LVU52
 171 0068 2293     		str	r3, [sp, #136]
 172 006a 436E     		ldr	r3, [r0, #100]
 173 006c 2393     		str	r3, [sp, #140]
 174              	.LVL25:
 113:fips202.c     ****         Ako = state[13];
 175              		.loc 1 113 9 is_stmt 1 view .LVU53
 176              		.loc 1 113 13 is_stmt 0 view .LVU54
 177 006e 836E     		ldr	r3, [r0, #104]
 178              	.LVL26:
 179              		.loc 1 113 13 view .LVU55
 180 0070 2493     		str	r3, [sp, #144]
 181 0072 C36E     		ldr	r3, [r0, #108]
 182 0074 2593     		str	r3, [sp, #148]
 183              	.LVL27:
 114:fips202.c     ****         Aku = state[14];
 184              		.loc 1 114 9 is_stmt 1 view .LVU56
 185              		.loc 1 114 13 is_stmt 0 view .LVU57
 186 0076 036F     		ldr	r3, [r0, #112]
 187              	.LVL28:
 188              		.loc 1 114 13 view .LVU58
 189 0078 2693     		str	r3, [sp, #152]
 190 007a 436F     		ldr	r3, [r0, #116]
 191 007c 2793     		str	r3, [sp, #156]
 192              	.LVL29:
 115:fips202.c     ****         Ama = state[15];
 193              		.loc 1 115 9 is_stmt 1 view .LVU59
 194              		.loc 1 115 13 is_stmt 0 view .LVU60
 195 007e 836F     		ldr	r3, [r0, #120]
 196              	.LVL30:
 197              		.loc 1 115 13 view .LVU61
 198 0080 2893     		str	r3, [sp, #160]
 199 0082 C36F     		ldr	r3, [r0, #124]
 200 0084 2993     		str	r3, [sp, #164]
 201              	.LVL31:
 116:fips202.c     ****         Ame = state[16];
 202              		.loc 1 116 9 is_stmt 1 view .LVU62
 203              		.loc 1 116 13 is_stmt 0 view .LVU63
 204 0086 D0F88030 		ldr	r3, [r0, #128]
 205              	.LVL32:
 206              		.loc 1 116 13 view .LVU64
 207 008a 2A93     		str	r3, [sp, #168]
 208 008c D0F88430 		ldr	r3, [r0, #132]
 209 0090 2B93     		str	r3, [sp, #172]
 210              	.LVL33:
 117:fips202.c     ****         Ami = state[17];
 211              		.loc 1 117 9 is_stmt 1 view .LVU65
 212              		.loc 1 117 13 is_stmt 0 view .LVU66
 213 0092 D0F88830 		ldr	r3, [r0, #136]
 214              	.LVL34:
 215              		.loc 1 117 13 view .LVU67
 216 0096 2C93     		str	r3, [sp, #176]
 217 0098 D0F88C30 		ldr	r3, [r0, #140]
 218 009c 2D93     		str	r3, [sp, #180]
 219              	.LVL35:
 118:fips202.c     ****         Amo = state[18];
 220              		.loc 1 118 9 is_stmt 1 view .LVU68
 221              		.loc 1 118 13 is_stmt 0 view .LVU69
 222 009e D0F89030 		ldr	r3, [r0, #144]
 223              	.LVL36:
 224              		.loc 1 118 13 view .LVU70
 225 00a2 2E93     		str	r3, [sp, #184]
 226 00a4 D0F89430 		ldr	r3, [r0, #148]
 227 00a8 2F93     		str	r3, [sp, #188]
 228              	.LVL37:
 119:fips202.c     ****         Amu = state[19];
 229              		.loc 1 119 9 is_stmt 1 view .LVU71
 230              		.loc 1 119 13 is_stmt 0 view .LVU72
 231 00aa D0F89830 		ldr	r3, [r0, #152]
 232              	.LVL38:
 233              		.loc 1 119 13 view .LVU73
 234 00ae 3093     		str	r3, [sp, #192]
 235 00b0 D0F89C30 		ldr	r3, [r0, #156]
 236 00b4 3193     		str	r3, [sp, #196]
 237              	.LVL39:
 120:fips202.c     ****         Asa = state[20];
 238              		.loc 1 120 9 is_stmt 1 view .LVU74
 239              		.loc 1 120 13 is_stmt 0 view .LVU75
 240 00b6 D0F8A030 		ldr	r3, [r0, #160]
 241              	.LVL40:
 242              		.loc 1 120 13 view .LVU76
 243 00ba 3293     		str	r3, [sp, #200]
 244 00bc D0F8A430 		ldr	r3, [r0, #164]
 245 00c0 3393     		str	r3, [sp, #204]
 246              	.LVL41:
 121:fips202.c     ****         Ase = state[21];
 247              		.loc 1 121 9 is_stmt 1 view .LVU77
 248              		.loc 1 121 13 is_stmt 0 view .LVU78
 249 00c2 D0F8A830 		ldr	r3, [r0, #168]
 250              	.LVL42:
 251              		.loc 1 121 13 view .LVU79
 252 00c6 3493     		str	r3, [sp, #208]
 253 00c8 D0F8AC30 		ldr	r3, [r0, #172]
 254 00cc 3593     		str	r3, [sp, #212]
 255              	.LVL43:
 122:fips202.c     ****         Asi = state[22];
 256              		.loc 1 122 9 is_stmt 1 view .LVU80
 257              		.loc 1 122 13 is_stmt 0 view .LVU81
 258 00ce D0F8B030 		ldr	r3, [r0, #176]
 259              	.LVL44:
 260              		.loc 1 122 13 view .LVU82
 261 00d2 3693     		str	r3, [sp, #216]
 262 00d4 D0F8B430 		ldr	r3, [r0, #180]
 263 00d8 3793     		str	r3, [sp, #220]
 264              	.LVL45:
 123:fips202.c     ****         Aso = state[23];
 265              		.loc 1 123 9 is_stmt 1 view .LVU83
 266              		.loc 1 123 13 is_stmt 0 view .LVU84
 267 00da D0F8B830 		ldr	r3, [r0, #184]
 268              	.LVL46:
 269              		.loc 1 123 13 view .LVU85
 270 00de 3893     		str	r3, [sp, #224]
 271 00e0 D0F8BC30 		ldr	r3, [r0, #188]
 272 00e4 3993     		str	r3, [sp, #228]
 273              	.LVL47:
 124:fips202.c     ****         Asu = state[24];
 274              		.loc 1 124 9 is_stmt 1 view .LVU86
 275              		.loc 1 124 13 is_stmt 0 view .LVU87
 276 00e6 D0F8C030 		ldr	r3, [r0, #192]
 277              	.LVL48:
 278              		.loc 1 124 13 view .LVU88
 279 00ea 3A93     		str	r3, [sp, #232]
 280 00ec D0F8C460 		ldr	r6, [r0, #196]
 281              	.LVL49:
 125:fips202.c     **** 
 126:fips202.c     ****         for(round = 0; round < NROUNDS; round += 2) {
 282              		.loc 1 126 9 is_stmt 1 view .LVU89
 283              		.loc 1 126 30 discriminator 1 view .LVU90
 284 00f0 014B     		ldr	r3, .L4
 285              	.LVL50:
 286              		.loc 1 126 30 is_stmt 0 discriminator 1 view .LVU91
 287 00f2 0093     		str	r3, [sp]
 288 00f4 02E0     		b	.L5
 289              	.L6:
 290 00f6 00BF     		.align	2
 291              	.L4:
 292 00f8 00000000 		.word	.LANCHOR0
 293              	.L5:
 294              	.LVL51:
 295              	.L2:
 127:fips202.c     ****             //    prepareTheta
 128:fips202.c     ****             BCa = Aba^Aga^Aka^Ama^Asa;
 296              		.loc 1 128 13 is_stmt 1 view .LVU92
 297              		.loc 1 128 22 is_stmt 0 view .LVU93
 298 00fc 149A     		ldr	r2, [sp, #80]
 299 00fe 0A9B     		ldr	r3, [sp, #40]
 300 0100 1599     		ldr	r1, [sp, #84]
 301 0102 5340     		eors	r3, r3, r2
 302 0104 0B9A     		ldr	r2, [sp, #44]
 303 0106 82EA0105 		eor	r5, r2, r1
 304              		.loc 1 128 26 view .LVU94
 305 010a 1E9A     		ldr	r2, [sp, #120]
 306 010c 5340     		eors	r3, r3, r2
 307 010e 1F9A     		ldr	r2, [sp, #124]
 308 0110 5540     		eors	r5, r5, r2
 309              		.loc 1 128 30 view .LVU95
 310 0112 289A     		ldr	r2, [sp, #160]
 311 0114 5340     		eors	r3, r3, r2
 312 0116 299A     		ldr	r2, [sp, #164]
 313 0118 5540     		eors	r5, r5, r2
 314              		.loc 1 128 17 view .LVU96
 315 011a 329A     		ldr	r2, [sp, #200]
 316 011c 5340     		eors	r3, r3, r2
 317 011e 339A     		ldr	r2, [sp, #204]
 318 0120 0893     		str	r3, [sp, #32]
 319 0122 5540     		eors	r5, r5, r2
 320              	.LVL52:
 129:fips202.c     ****             BCe = Abe^Age^Ake^Ame^Ase;
 321              		.loc 1 129 13 is_stmt 1 view .LVU97
 322              		.loc 1 129 22 is_stmt 0 view .LVU98
 323 0124 0C9B     		ldr	r3, [sp, #48]
 324              	.LVL53:
 325              		.loc 1 129 22 view .LVU99
 326 0126 169A     		ldr	r2, [sp, #88]
 327 0128 83EA0209 		eor	r9, r3, r2
 328 012c 0D9B     		ldr	r3, [sp, #52]
 329 012e 179A     		ldr	r2, [sp, #92]
 330 0130 83EA0208 		eor	r8, r3, r2
 331              		.loc 1 129 26 view .LVU100
 332 0134 209B     		ldr	r3, [sp, #128]
 130:fips202.c     ****             BCi = Abi^Agi^Aki^Ami^Asi;
 333              		.loc 1 130 22 view .LVU101
 334 0136 189A     		ldr	r2, [sp, #96]
 129:fips202.c     ****             BCe = Abe^Age^Ake^Ame^Ase;
 335              		.loc 1 129 26 view .LVU102
 336 0138 89EA0309 		eor	r9, r9, r3
 337 013c 219B     		ldr	r3, [sp, #132]
 338 013e 88EA0308 		eor	r8, r8, r3
 129:fips202.c     ****             BCe = Abe^Age^Ake^Ame^Ase;
 339              		.loc 1 129 30 view .LVU103
 340 0142 2A9B     		ldr	r3, [sp, #168]
 341 0144 89EA0309 		eor	r9, r9, r3
 342 0148 2B9B     		ldr	r3, [sp, #172]
 343 014a 88EA0308 		eor	r8, r8, r3
 129:fips202.c     ****             BCe = Abe^Age^Ake^Ame^Ase;
 344              		.loc 1 129 17 view .LVU104
 345 014e 349B     		ldr	r3, [sp, #208]
 346 0150 89EA0309 		eor	r9, r9, r3
 347 0154 359B     		ldr	r3, [sp, #212]
 348 0156 88EA0308 		eor	r8, r8, r3
 349              	.LVL54:
 350              		.loc 1 130 13 is_stmt 1 view .LVU105
 351              		.loc 1 130 22 is_stmt 0 view .LVU106
 352 015a 0E9B     		ldr	r3, [sp, #56]
 353 015c 83EA020C 		eor	ip, r3, r2
 354 0160 0F9B     		ldr	r3, [sp, #60]
 355 0162 199A     		ldr	r2, [sp, #100]
 356 0164 83EA0207 		eor	r7, r3, r2
 357              		.loc 1 130 26 view .LVU107
 358 0168 229B     		ldr	r3, [sp, #136]
 359 016a 239A     		ldr	r2, [sp, #140]
 360 016c 8CEA030C 		eor	ip, ip, r3
 361 0170 5740     		eors	r7, r7, r2
 362              		.loc 1 130 30 view .LVU108
 363 0172 2C9B     		ldr	r3, [sp, #176]
 364 0174 2D9A     		ldr	r2, [sp, #180]
 365 0176 8CEA030C 		eor	ip, ip, r3
 366 017a 5740     		eors	r7, r7, r2
 367              		.loc 1 130 17 view .LVU109
 368 017c 369B     		ldr	r3, [sp, #216]
 369 017e 379A     		ldr	r2, [sp, #220]
 370 0180 8CEA030C 		eor	ip, ip, r3
 371 0184 5740     		eors	r7, r7, r2
 372              	.LVL55:
 131:fips202.c     ****             BCo = Abo^Ago^Ako^Amo^Aso;
 373              		.loc 1 131 13 is_stmt 1 view .LVU110
 374              		.loc 1 131 22 is_stmt 0 view .LVU111
 375 0186 109B     		ldr	r3, [sp, #64]
 376 0188 1A9A     		ldr	r2, [sp, #104]
 132:fips202.c     ****             BCu = Abu^Agu^Aku^Amu^Asu;
 377              		.loc 1 132 22 view .LVU112
 378 018a DDF874E0 		ldr	lr, [sp, #116]
 131:fips202.c     ****             BCo = Abo^Ago^Ako^Amo^Aso;
 379              		.loc 1 131 22 view .LVU113
 380 018e 83EA0204 		eor	r4, r3, r2
 381 0192 119B     		ldr	r3, [sp, #68]
 382 0194 1B9A     		ldr	r2, [sp, #108]
 383 0196 83EA0201 		eor	r1, r3, r2
 131:fips202.c     ****             BCo = Abo^Ago^Ako^Amo^Aso;
 384              		.loc 1 131 26 view .LVU114
 385 019a 249A     		ldr	r2, [sp, #144]
 386              		.loc 1 132 22 view .LVU115
 387 019c 129B     		ldr	r3, [sp, #72]
 131:fips202.c     ****             BCo = Abo^Ago^Ako^Amo^Aso;
 388              		.loc 1 131 26 view .LVU116
 389 019e 5440     		eors	r4, r4, r2
 390 01a0 259A     		ldr	r2, [sp, #148]
 391 01a2 5140     		eors	r1, r1, r2
 131:fips202.c     ****             BCo = Abo^Ago^Ako^Amo^Aso;
 392              		.loc 1 131 30 view .LVU117
 393 01a4 2E9A     		ldr	r2, [sp, #184]
 394 01a6 5440     		eors	r4, r4, r2
 395 01a8 2F9A     		ldr	r2, [sp, #188]
 396 01aa 5140     		eors	r1, r1, r2
 131:fips202.c     ****             BCo = Abo^Ago^Ako^Amo^Aso;
 397              		.loc 1 131 17 view .LVU118
 398 01ac 389A     		ldr	r2, [sp, #224]
 399 01ae 5440     		eors	r4, r4, r2
 400 01b0 399A     		ldr	r2, [sp, #228]
 401 01b2 5140     		eors	r1, r1, r2
 402              	.LVL56:
 403              		.loc 1 132 13 is_stmt 1 view .LVU119
 404              		.loc 1 132 22 is_stmt 0 view .LVU120
 405 01b4 1C9A     		ldr	r2, [sp, #112]
 406 01b6 5A40     		eors	r2, r2, r3
 407 01b8 139B     		ldr	r3, [sp, #76]
 408 01ba 83EA0E0E 		eor	lr, r3, lr
 409              		.loc 1 132 26 view .LVU121
 410 01be 269B     		ldr	r3, [sp, #152]
 411 01c0 5A40     		eors	r2, r2, r3
 412 01c2 279B     		ldr	r3, [sp, #156]
 413 01c4 8EEA030E 		eor	lr, lr, r3
 414              		.loc 1 132 30 view .LVU122
 415 01c8 309B     		ldr	r3, [sp, #192]
 416 01ca 5A40     		eors	r2, r2, r3
 417 01cc 319B     		ldr	r3, [sp, #196]
 418 01ce 8EEA030E 		eor	lr, lr, r3
 419              		.loc 1 132 17 view .LVU123
 420 01d2 3A9B     		ldr	r3, [sp, #232]
 133:fips202.c     **** 
 134:fips202.c     ****             //thetaRhoPiChiIotaPrepareTheta(round, A, E)
 135:fips202.c     ****             Da = BCu^ROL(BCe, 1);
 421              		.loc 1 135 22 view .LVU124
 422 01d4 4FEA490B 		lsl	fp, r9, #1
 132:fips202.c     ****             BCu = Abu^Agu^Aku^Amu^Asu;
 423              		.loc 1 132 17 view .LVU125
 424 01d8 5A40     		eors	r2, r2, r3
 425              		.loc 1 135 22 view .LVU126
 426 01da 4BEAD87B 		orr	fp, fp, r8, lsr #31
 427 01de 4FEA480A 		lsl	r10, r8, #1
 132:fips202.c     ****             BCu = Abu^Agu^Aku^Amu^Asu;
 428              		.loc 1 132 17 view .LVU127
 429 01e2 8EEA060E 		eor	lr, lr, r6
 430              	.LVL57:
 431              		.loc 1 135 13 is_stmt 1 view .LVU128
 432              		.loc 1 135 16 is_stmt 0 view .LVU129
 433 01e6 8BEA0203 		eor	r3, fp, r2
 434              		.loc 1 135 22 view .LVU130
 435 01ea 4AEAD97A 		orr	r10, r10, r9, lsr #31
 436              		.loc 1 135 16 view .LVU131
 437 01ee 0193     		str	r3, [sp, #4]
 438 01f0 8AEA0E03 		eor	r3, r10, lr
 439 01f4 0293     		str	r3, [sp, #8]
 440              	.LVL58:
 136:fips202.c     ****             De = BCa^ROL(BCi, 1);
 441              		.loc 1 136 13 is_stmt 1 view .LVU132
 442              		.loc 1 136 22 is_stmt 0 view .LVU133
 443 01f6 4FEA4C0B 		lsl	fp, ip, #1
 444              		.loc 1 136 16 view .LVU134
 445 01fa 089B     		ldr	r3, [sp, #32]
 446              	.LVL59:
 447              		.loc 1 136 22 view .LVU135
 448 01fc 4BEAD77B 		orr	fp, fp, r7, lsr #31
 449 0200 4FEA470A 		lsl	r10, r7, #1
 450 0204 4AEADC7A 		orr	r10, r10, ip, lsr #31
 451              		.loc 1 136 16 view .LVU136
 452 0208 8BEA0303 		eor	r3, fp, r3
 453 020c 0393     		str	r3, [sp, #12]
 454 020e 8AEA0503 		eor	r3, r10, r5
 137:fips202.c     ****             Di = BCe^ROL(BCo, 1);
 455              		.loc 1 137 22 view .LVU137
 456 0212 4FEA410A 		lsl	r10, r1, #1
 457 0216 4AEAD47A 		orr	r10, r10, r4, lsr #31
 136:fips202.c     ****             De = BCa^ROL(BCi, 1);
 458              		.loc 1 136 16 view .LVU138
 459 021a 0493     		str	r3, [sp, #16]
 460              	.LVL60:
 461              		.loc 1 137 13 is_stmt 1 view .LVU139
 462              		.loc 1 137 16 is_stmt 0 view .LVU140
 463 021c 8AEA0803 		eor	r3, r10, r8
 464              	.LVL61:
 138:fips202.c     ****             Do = BCi^ROL(BCu, 1);
 465              		.loc 1 138 22 view .LVU141
 466 0220 4FEA4E08 		lsl	r8, lr, #1
 467              	.LVL62:
 468              		.loc 1 138 22 view .LVU142
 469 0224 48EAD278 		orr	r8, r8, r2, lsr #31
 470 0228 5200     		lsls	r2, r2, #1
 471              	.LVL63:
 472              		.loc 1 138 22 view .LVU143
 473 022a 42EADE72 		orr	r2, r2, lr, lsr #31
 137:fips202.c     ****             Di = BCe^ROL(BCo, 1);
 474              		.loc 1 137 16 view .LVU144
 475 022e 0593     		str	r3, [sp, #20]
 476              		.loc 1 138 16 view .LVU145
 477 0230 82EA0C03 		eor	r3, r2, ip
 478 0234 0693     		str	r3, [sp, #24]
 479 0236 88EA0703 		eor	r3, r8, r7
 480 023a 0793     		str	r3, [sp, #28]
 139:fips202.c     ****             Du = BCo^ROL(BCa, 1);
 481              		.loc 1 139 22 view .LVU146
 482 023c 089B     		ldr	r3, [sp, #32]
 483 023e 6A00     		lsls	r2, r5, #1
 484 0240 42EAD372 		orr	r2, r2, r3, lsr #31
 485 0244 5B00     		lsls	r3, r3, #1
 486 0246 43EAD573 		orr	r3, r3, r5, lsr #31
 487              		.loc 1 139 16 view .LVU147
 488 024a 6340     		eors	r3, r3, r4
 489 024c 0893     		str	r3, [sp, #32]
 490              	.LVL64:
 491              		.loc 1 139 16 view .LVU148
 492 024e 82EA0103 		eor	r3, r2, r1
 137:fips202.c     ****             Di = BCe^ROL(BCo, 1);
 493              		.loc 1 137 22 view .LVU149
 494 0252 4FEA440B 		lsl	fp, r4, #1
 140:fips202.c     **** 
 141:fips202.c     ****             Aba ^= Da;
 495              		.loc 1 141 17 view .LVU150
 496 0256 0A9A     		ldr	r2, [sp, #40]
 139:fips202.c     ****             Du = BCo^ROL(BCa, 1);
 497              		.loc 1 139 16 view .LVU151
 498 0258 0993     		str	r3, [sp, #36]
 499              		.loc 1 141 17 view .LVU152
 500 025a 019B     		ldr	r3, [sp, #4]
 137:fips202.c     ****             Do = BCi^ROL(BCu, 1);
 501              		.loc 1 137 22 view .LVU153
 502 025c 4BEAD17B 		orr	fp, fp, r1, lsr #31
 137:fips202.c     ****             Do = BCi^ROL(BCu, 1);
 503              		.loc 1 137 16 view .LVU154
 504 0260 8BEA090B 		eor	fp, fp, r9
 505              	.LVL65:
 138:fips202.c     ****             Du = BCo^ROL(BCa, 1);
 506              		.loc 1 138 13 is_stmt 1 view .LVU155
 139:fips202.c     **** 
 507              		.loc 1 139 13 view .LVU156
 508              		.loc 1 141 13 view .LVU157
 509              		.loc 1 141 17 is_stmt 0 view .LVU158
 510 0264 83EA0209 		eor	r9, r3, r2
 511              	.LVL66:
 512              		.loc 1 141 17 view .LVU159
 513 0268 029B     		ldr	r3, [sp, #8]
 514 026a 0B9A     		ldr	r2, [sp, #44]
 142:fips202.c     ****             BCa = Aba;
 143:fips202.c     ****             Age ^= De;
 515              		.loc 1 143 17 view .LVU160
 516 026c 1799     		ldr	r1, [sp, #92]
 517              	.LVL67:
 144:fips202.c     ****             BCe = ROL(Age, 44);
 145:fips202.c     ****             Aki ^= Di;
 518              		.loc 1 145 17 view .LVU161
 519 026e 239C     		ldr	r4, [sp, #140]
 520              	.LVL68:
 146:fips202.c     ****             BCi = ROL(Aki, 43);
 147:fips202.c     ****             Amo ^= Do;
 521              		.loc 1 147 17 view .LVU162
 522 0270 2F9F     		ldr	r7, [sp, #188]
 523              	.LVL69:
 141:fips202.c     ****             BCa = Aba;
 524              		.loc 1 141 17 view .LVU163
 525 0272 83EA020A 		eor	r10, r3, r2
 526              	.LVL70:
 142:fips202.c     ****             Age ^= De;
 527              		.loc 1 142 13 is_stmt 1 view .LVU164
 143:fips202.c     ****             BCe = ROL(Age, 44);
 528              		.loc 1 143 13 view .LVU165
 144:fips202.c     ****             Aki ^= Di;
 529              		.loc 1 144 13 view .LVU166
 143:fips202.c     ****             BCe = ROL(Age, 44);
 530              		.loc 1 143 17 is_stmt 0 view .LVU167
 531 0276 039B     		ldr	r3, [sp, #12]
 532 0278 169A     		ldr	r2, [sp, #88]
 533 027a 5A40     		eors	r2, r2, r3
 534 027c 049B     		ldr	r3, [sp, #16]
 144:fips202.c     ****             Aki ^= Di;
 535              		.loc 1 144 17 view .LVU168
 536 027e 150D     		lsrs	r5, r2, #20
 143:fips202.c     ****             BCe = ROL(Age, 44);
 537              		.loc 1 143 17 view .LVU169
 538 0280 4B40     		eors	r3, r3, r1
 144:fips202.c     ****             Aki ^= Di;
 539              		.loc 1 144 17 view .LVU170
 540 0282 45EA0335 		orr	r5, r5, r3, lsl #12
 541 0286 1B0D     		lsrs	r3, r3, #20
 542 0288 43EA0233 		orr	r3, r3, r2, lsl #12
 543              	.LVL71:
 145:fips202.c     ****             BCi = ROL(Aki, 43);
 544              		.loc 1 145 13 is_stmt 1 view .LVU171
 146:fips202.c     ****             Amo ^= Do;
 545              		.loc 1 146 13 view .LVU172
 145:fips202.c     ****             BCi = ROL(Aki, 43);
 546              		.loc 1 145 17 is_stmt 0 view .LVU173
 547 028c 229A     		ldr	r2, [sp, #136]
 548 028e 0599     		ldr	r1, [sp, #20]
 549 0290 8BEA0202 		eor	r2, fp, r2
 550 0294 4C40     		eors	r4, r4, r1
 146:fips202.c     ****             Amo ^= Do;
 551              		.loc 1 146 17 view .LVU174
 552 0296 4FEA5258 		lsr	r8, r2, #21
 553 029a 48EAC428 		orr	r8, r8, r4, lsl #11
 554 029e 640D     		lsrs	r4, r4, #21
 555 02a0 44EAC224 		orr	r4, r4, r2, lsl #11
 556              	.LVL72:
 557              		.loc 1 147 13 is_stmt 1 view .LVU175
 148:fips202.c     ****             BCo = ROL(Amo, 21);
 558              		.loc 1 148 13 view .LVU176
 147:fips202.c     ****             BCo = ROL(Amo, 21);
 559              		.loc 1 147 17 is_stmt 0 view .LVU177
 560 02a4 2E99     		ldr	r1, [sp, #184]
 561 02a6 069A     		ldr	r2, [sp, #24]
 562 02a8 5140     		eors	r1, r1, r2
 563 02aa 079A     		ldr	r2, [sp, #28]
 564 02ac 7A40     		eors	r2, r2, r7
 565              		.loc 1 148 17 view .LVU178
 566 02ae 4FEA425E 		lsl	lr, r2, #21
 567              	.LVL73:
 568              		.loc 1 148 17 view .LVU179
 569 02b2 4EEAD12E 		orr	lr, lr, r1, lsr #11
 570 02b6 4905     		lsls	r1, r1, #21
 149:fips202.c     ****             Asu ^= Du;
 571              		.loc 1 149 17 view .LVU180
 572 02b8 3A9F     		ldr	r7, [sp, #232]
 148:fips202.c     ****             BCo = ROL(Amo, 21);
 573              		.loc 1 148 17 view .LVU181
 574 02ba 41EAD221 		orr	r1, r1, r2, lsr #11
 575              	.LVL74:
 576              		.loc 1 149 13 is_stmt 1 view .LVU182
 150:fips202.c     ****             BCu = ROL(Asu, 14);
 577              		.loc 1 150 13 view .LVU183
 149:fips202.c     ****             Asu ^= Du;
 578              		.loc 1 149 17 is_stmt 0 view .LVU184
 579 02be 089A     		ldr	r2, [sp, #32]
 580 02c0 7A40     		eors	r2, r2, r7
 581 02c2 099F     		ldr	r7, [sp, #36]
 582 02c4 7E40     		eors	r6, r6, r7
 583              	.LVL75:
 584              		.loc 1 150 17 view .LVU185
 585 02c6 4FEA863C 		lsl	ip, r6, #14
 586 02ca 4CEA924C 		orr	ip, ip, r2, lsr #18
 587 02ce 9203     		lsls	r2, r2, #14
 588 02d0 42EA9642 		orr	r2, r2, r6, lsr #18
 589              	.LVL76:
 151:fips202.c     ****             Eba =   BCa ^((~BCe)&  BCi );
 590              		.loc 1 151 13 is_stmt 1 view .LVU186
 152:fips202.c     ****             Eba ^= (uint64_t)KeccakF_RoundConstants[round];
 591              		.loc 1 152 13 view .LVU187
 592              		.loc 1 152 17 is_stmt 0 view .LVU188
 593 02d4 009E     		ldr	r6, [sp]
 594 02d6 D6E90076 		ldrd	r7, r6, [r6]
 595 02da 8AEA0606 		eor	r6, r10, r6
 596 02de 0B96     		str	r6, [sp, #44]
 597 02e0 89EA0707 		eor	r7, r9, r7
 598 02e4 28EA0506 		bic	r6, r8, r5
 599 02e8 7E40     		eors	r6, r6, r7
 600 02ea 0B9F     		ldr	r7, [sp, #44]
 601 02ec 0A96     		str	r6, [sp, #40]
 602 02ee 24EA0306 		bic	r6, r4, r3
 603 02f2 7740     		eors	r7, r7, r6
 153:fips202.c     ****             Ebe =   BCe ^((~BCi)&  BCo );
 604              		.loc 1 153 33 view .LVU189
 605 02f4 2EEA0406 		bic	r6, lr, r4
 606              		.loc 1 153 17 view .LVU190
 607 02f8 5E40     		eors	r6, r6, r3
 152:fips202.c     ****             Eba ^= (uint64_t)KeccakF_RoundConstants[round];
 608              		.loc 1 152 17 view .LVU191
 609 02fa 0B97     		str	r7, [sp, #44]
 610              	.LVL77:
 611              		.loc 1 153 13 is_stmt 1 view .LVU192
 612              		.loc 1 153 33 is_stmt 0 view .LVU193
 613 02fc 21EA0807 		bic	r7, r1, r8
 614              	.LVL78:
 615              		.loc 1 153 17 view .LVU194
 616 0300 6F40     		eors	r7, r7, r5
 617 0302 2396     		str	r6, [sp, #140]
 618              	.LVL79:
 154:fips202.c     ****             Ebi =   BCi ^((~BCo)&  BCu );
 619              		.loc 1 154 13 is_stmt 1 view .LVU195
 155:fips202.c     ****             Ebo =   BCo ^((~BCu)&  BCa );
 156:fips202.c     ****             Ebu =   BCu ^((~BCa)&  BCe );
 620              		.loc 1 156 33 is_stmt 0 view .LVU196
 621 0304 25EA0905 		bic	r5, r5, r9
 622              	.LVL80:
 154:fips202.c     ****             Ebi =   BCi ^((~BCo)&  BCu );
 623              		.loc 1 154 33 view .LVU197
 624 0308 2CEA0E06 		bic	r6, ip, lr
 625              	.LVL81:
 626              		.loc 1 156 33 view .LVU198
 627 030c 23EA0A03 		bic	r3, r3, r10
 628              	.LVL82:
 154:fips202.c     ****             Ebi =   BCi ^((~BCo)&  BCu );
 629              		.loc 1 154 17 view .LVU199
 630 0310 7440     		eors	r4, r4, r6
 631              	.LVL83:
 632              		.loc 1 156 17 view .LVU200
 633 0312 83EA0C03 		eor	r3, r3, ip
 155:fips202.c     ****             Ebo =   BCo ^((~BCu)&  BCa );
 634              		.loc 1 155 33 view .LVU201
 635 0316 29EA0206 		bic	r6, r9, r2
 153:fips202.c     ****             Ebi =   BCi ^((~BCo)&  BCu );
 636              		.loc 1 153 17 view .LVU202
 637 031a 2297     		str	r7, [sp, #136]
 638              	.LVL84:
 154:fips202.c     ****             Ebi =   BCi ^((~BCo)&  BCu );
 639              		.loc 1 154 33 view .LVU203
 640 031c 22EA0107 		bic	r7, r2, r1
 641              		.loc 1 156 17 view .LVU204
 642 0320 6A40     		eors	r2, r2, r5
 643              	.LVL85:
 155:fips202.c     ****             Ebo =   BCo ^((~BCu)&  BCa );
 644              		.loc 1 155 17 view .LVU205
 645 0322 7140     		eors	r1, r1, r6
 646              	.LVL86:
 154:fips202.c     ****             Ebi =   BCi ^((~BCo)&  BCu );
 647              		.loc 1 154 17 view .LVU206
 648 0324 3B94     		str	r4, [sp, #236]
 649              	.LVL87:
 155:fips202.c     ****             Ebo =   BCo ^((~BCu)&  BCa );
 650              		.loc 1 155 13 is_stmt 1 view .LVU207
 651              		.loc 1 156 17 is_stmt 0 view .LVU208
 652 0326 2E92     		str	r2, [sp, #184]
 653              	.LVL88:
 155:fips202.c     ****             Ebo =   BCo ^((~BCu)&  BCa );
 654              		.loc 1 155 33 view .LVU209
 655 0328 2AEA0C04 		bic	r4, r10, ip
 656              	.LVL89:
 157:fips202.c     **** 
 158:fips202.c     ****             Abo ^= Do;
 657              		.loc 1 158 17 view .LVU210
 658 032c 109A     		ldr	r2, [sp, #64]
 156:fips202.c     **** 
 659              		.loc 1 156 17 view .LVU211
 660 032e 2F93     		str	r3, [sp, #188]
 661              		.loc 1 158 17 view .LVU212
 662 0330 069B     		ldr	r3, [sp, #24]
 155:fips202.c     ****             Ebu =   BCu ^((~BCa)&  BCe );
 663              		.loc 1 155 17 view .LVU213
 664 0332 1691     		str	r1, [sp, #88]
 665              	.LVL90:
 154:fips202.c     ****             Ebo =   BCo ^((~BCu)&  BCa );
 666              		.loc 1 154 17 view .LVU214
 667 0334 87EA0807 		eor	r7, r7, r8
 155:fips202.c     ****             Ebu =   BCu ^((~BCa)&  BCe );
 668              		.loc 1 155 17 view .LVU215
 669 0338 84EA0E01 		eor	r1, r4, lr
 154:fips202.c     ****             Ebo =   BCo ^((~BCu)&  BCa );
 670              		.loc 1 154 17 view .LVU216
 671 033c 3A97     		str	r7, [sp, #232]
 672              	.LVL91:
 155:fips202.c     ****             Ebu =   BCu ^((~BCa)&  BCe );
 673              		.loc 1 155 17 view .LVU217
 674 033e 1791     		str	r1, [sp, #92]
 675              	.LVL92:
 156:fips202.c     **** 
 676              		.loc 1 156 13 is_stmt 1 view .LVU218
 677              		.loc 1 158 13 view .LVU219
 159:fips202.c     ****             BCa = ROL(Abo, 28);
 678              		.loc 1 159 13 view .LVU220
 158:fips202.c     ****             BCa = ROL(Abo, 28);
 679              		.loc 1 158 17 is_stmt 0 view .LVU221
 680 0340 83EA0201 		eor	r1, r3, r2
 681              	.LVL93:
 158:fips202.c     ****             BCa = ROL(Abo, 28);
 682              		.loc 1 158 17 view .LVU222
 683 0344 079B     		ldr	r3, [sp, #28]
 684 0346 119A     		ldr	r2, [sp, #68]
 160:fips202.c     ****             Agu ^= Du;
 685              		.loc 1 160 17 view .LVU223
 686 0348 1D9C     		ldr	r4, [sp, #116]
 161:fips202.c     ****             BCe = ROL(Agu, 20);
 162:fips202.c     ****             Aka ^= Da;
 163:fips202.c     ****             BCi = ROL(Aka,  3);
 164:fips202.c     ****             Ame ^= De;
 687              		.loc 1 164 17 view .LVU224
 688 034a 2B9F     		ldr	r7, [sp, #172]
 158:fips202.c     ****             BCa = ROL(Abo, 28);
 689              		.loc 1 158 17 view .LVU225
 690 034c 5340     		eors	r3, r3, r2
 159:fips202.c     ****             Agu ^= Du;
 691              		.loc 1 159 17 view .LVU226
 692 034e 4FEA037C 		lsl	ip, r3, #28
 693 0352 4CEA111C 		orr	ip, ip, r1, lsr #4
 694 0356 0907     		lsls	r1, r1, #28
 695 0358 41EA1311 		orr	r1, r1, r3, lsr #4
 696              	.LVL94:
 160:fips202.c     ****             BCe = ROL(Agu, 20);
 697              		.loc 1 160 13 is_stmt 1 view .LVU227
 161:fips202.c     ****             Aka ^= Da;
 698              		.loc 1 161 13 view .LVU228
 160:fips202.c     ****             BCe = ROL(Agu, 20);
 699              		.loc 1 160 17 is_stmt 0 view .LVU229
 700 035c 1C9A     		ldr	r2, [sp, #112]
 701 035e 089B     		ldr	r3, [sp, #32]
 702 0360 5340     		eors	r3, r3, r2
 703 0362 099A     		ldr	r2, [sp, #36]
 704 0364 6240     		eors	r2, r2, r4
 161:fips202.c     ****             Aka ^= Da;
 705              		.loc 1 161 17 view .LVU230
 706 0366 1605     		lsls	r6, r2, #20
 707 0368 46EA1336 		orr	r6, r6, r3, lsr #12
 708 036c 1B05     		lsls	r3, r3, #20
 162:fips202.c     ****             BCi = ROL(Aka,  3);
 709              		.loc 1 162 17 view .LVU231
 710 036e 1E9C     		ldr	r4, [sp, #120]
 161:fips202.c     ****             Aka ^= Da;
 711              		.loc 1 161 17 view .LVU232
 712 0370 43EA1233 		orr	r3, r3, r2, lsr #12
 713              	.LVL95:
 162:fips202.c     ****             BCi = ROL(Aka,  3);
 714              		.loc 1 162 13 is_stmt 1 view .LVU233
 163:fips202.c     ****             Ame ^= De;
 715              		.loc 1 163 13 view .LVU234
 162:fips202.c     ****             BCi = ROL(Aka,  3);
 716              		.loc 1 162 17 is_stmt 0 view .LVU235
 717 0374 019A     		ldr	r2, [sp, #4]
 718 0376 82EA0405 		eor	r5, r2, r4
 719 037a 1F9C     		ldr	r4, [sp, #124]
 720 037c 029A     		ldr	r2, [sp, #8]
 721 037e 6240     		eors	r2, r2, r4
 163:fips202.c     ****             Ame ^= De;
 722              		.loc 1 163 17 view .LVU236
 723 0380 4FEAC208 		lsl	r8, r2, #3
 163:fips202.c     ****             Ame ^= De;
 724              		.loc 1 163 17 view .LVU237
 725 0384 48EA5578 		orr	r8, r8, r5, lsr #29
 726 0388 ED00     		lsls	r5, r5, #3
 727              		.loc 1 164 17 view .LVU238
 728 038a 2A9C     		ldr	r4, [sp, #168]
 163:fips202.c     ****             Ame ^= De;
 729              		.loc 1 163 17 view .LVU239
 730 038c 45EA5275 		orr	r5, r5, r2, lsr #29
 731              	.LVL96:
 732              		.loc 1 164 13 is_stmt 1 view .LVU240
 165:fips202.c     ****             BCo = ROL(Ame, 45);
 733              		.loc 1 165 13 view .LVU241
 164:fips202.c     ****             BCo = ROL(Ame, 45);
 734              		.loc 1 164 17 is_stmt 0 view .LVU242
 735 0390 039A     		ldr	r2, [sp, #12]
 736 0392 6240     		eors	r2, r2, r4
 737 0394 049C     		ldr	r4, [sp, #16]
 738              		.loc 1 165 17 view .LVU243
 739 0396 4FEAD24E 		lsr	lr, r2, #19
 164:fips202.c     ****             BCo = ROL(Ame, 45);
 740              		.loc 1 164 17 view .LVU244
 741 039a 7C40     		eors	r4, r4, r7
 742              		.loc 1 165 17 view .LVU245
 743 039c 4EEA443E 		orr	lr, lr, r4, lsl #13
 744 03a0 E40C     		lsrs	r4, r4, #19
 745 03a2 44EA4234 		orr	r4, r4, r2, lsl #13
 746              	.LVL97:
 166:fips202.c     ****             Asi ^= Di;
 747              		.loc 1 166 13 is_stmt 1 view .LVU246
 167:fips202.c     ****             BCu = ROL(Asi, 61);
 748              		.loc 1 167 13 view .LVU247
 166:fips202.c     ****             Asi ^= Di;
 749              		.loc 1 166 17 is_stmt 0 view .LVU248
 750 03a6 369A     		ldr	r2, [sp, #216]
 751 03a8 379F     		ldr	r7, [sp, #220]
 752 03aa 8BEA0209 		eor	r9, fp, r2
 753              	.LVL98:
 166:fips202.c     ****             Asi ^= Di;
 754              		.loc 1 166 17 view .LVU249
 755 03ae 059A     		ldr	r2, [sp, #20]
 756 03b0 7A40     		eors	r2, r2, r7
 757              		.loc 1 167 17 view .LVU250
 758 03b2 4FEAD907 		lsr	r7, r9, #3
 759 03b6 47EA4277 		orr	r7, r7, r2, lsl #29
 168:fips202.c     ****             Ega =   BCa ^((~BCe)&  BCi );
 760              		.loc 1 168 33 view .LVU251
 761 03ba 25EA030A 		bic	r10, r5, r3
 167:fips202.c     ****             BCu = ROL(Asi, 61);
 762              		.loc 1 167 17 view .LVU252
 763 03be D208     		lsrs	r2, r2, #3
 764 03c0 42EA4972 		orr	r2, r2, r9, lsl #29
 765              	.LVL99:
 766              		.loc 1 168 13 is_stmt 1 view .LVU253
 767              		.loc 1 168 17 is_stmt 0 view .LVU254
 768 03c4 8AEA010A 		eor	r10, r10, r1
 769              		.loc 1 168 33 view .LVU255
 770 03c8 28EA0609 		bic	r9, r8, r6
 771              		.loc 1 168 17 view .LVU256
 772 03cc 89EA0C09 		eor	r9, r9, ip
 773 03d0 CDF8A8A0 		str	r10, [sp, #168]
 774              	.LVL100:
 169:fips202.c     ****             Ege =   BCe ^((~BCi)&  BCo );
 775              		.loc 1 169 33 view .LVU257
 776 03d4 2EEA050A 		bic	r10, lr, r5
 777              		.loc 1 169 17 view .LVU258
 778 03d8 8AEA030A 		eor	r10, r10, r3
 168:fips202.c     ****             Ega =   BCa ^((~BCe)&  BCi );
 779              		.loc 1 168 17 view .LVU259
 780 03dc CDF8AC90 		str	r9, [sp, #172]
 781              	.LVL101:
 782              		.loc 1 169 13 is_stmt 1 view .LVU260
 783              		.loc 1 169 33 is_stmt 0 view .LVU261
 784 03e0 24EA0809 		bic	r9, r4, r8
 785              	.LVL102:
 786              		.loc 1 169 17 view .LVU262
 787 03e4 89EA0609 		eor	r9, r9, r6
 788 03e8 CDF840A0 		str	r10, [sp, #64]
 789              	.LVL103:
 170:fips202.c     ****             Egi =   BCi ^((~BCo)&  BCu );
 171:fips202.c     ****             Ego =   BCo ^((~BCu)&  BCa );
 172:fips202.c     ****             Egu =   BCu ^((~BCa)&  BCe );
 790              		.loc 1 172 33 view .LVU263
 791 03ec 23EA0103 		bic	r3, r3, r1
 792              	.LVL104:
 170:fips202.c     ****             Egi =   BCi ^((~BCo)&  BCu );
 793              		.loc 1 170 33 view .LVU264
 794 03f0 27EA0E0A 		bic	r10, r7, lr
 170:fips202.c     ****             Egi =   BCi ^((~BCo)&  BCu );
 795              		.loc 1 170 17 view .LVU265
 796 03f4 8AEA0505 		eor	r5, r10, r5
 797              	.LVL105:
 798              		.loc 1 172 33 view .LVU266
 799 03f8 26EA0C06 		bic	r6, r6, ip
 800              	.LVL106:
 801              		.loc 1 172 17 view .LVU267
 802 03fc 7B40     		eors	r3, r3, r7
 169:fips202.c     ****             Ege =   BCe ^((~BCi)&  BCo );
 803              		.loc 1 169 17 view .LVU268
 804 03fe CDF84490 		str	r9, [sp, #68]
 805              	.LVL107:
 170:fips202.c     ****             Egi =   BCi ^((~BCo)&  BCu );
 806              		.loc 1 170 13 is_stmt 1 view .LVU269
 170:fips202.c     ****             Egi =   BCi ^((~BCo)&  BCu );
 807              		.loc 1 170 33 is_stmt 0 view .LVU270
 808 0402 22EA0409 		bic	r9, r2, r4
 809              	.LVL108:
 170:fips202.c     ****             Egi =   BCi ^((~BCo)&  BCu );
 810              		.loc 1 170 17 view .LVU271
 811 0406 1E95     		str	r5, [sp, #120]
 812              	.LVL109:
 813              		.loc 1 172 17 view .LVU272
 814 0408 1C93     		str	r3, [sp, #112]
 815              	.LVL110:
 170:fips202.c     ****             Egi =   BCi ^((~BCo)&  BCu );
 816              		.loc 1 170 17 view .LVU273
 817 040a 89EA0805 		eor	r5, r9, r8
 818              		.loc 1 172 17 view .LVU274
 819 040e 86EA0203 		eor	r3, r6, r2
 170:fips202.c     ****             Egi =   BCi ^((~BCo)&  BCu );
 820              		.loc 1 170 17 view .LVU275
 821 0412 1F95     		str	r5, [sp, #124]
 822              	.LVL111:
 171:fips202.c     ****             Egu =   BCu ^((~BCa)&  BCe );
 823              		.loc 1 171 13 is_stmt 1 view .LVU276
 824              		.loc 1 172 17 is_stmt 0 view .LVU277
 825 0414 1D93     		str	r3, [sp, #116]
 171:fips202.c     ****             Egu =   BCu ^((~BCa)&  BCe );
 826              		.loc 1 171 33 view .LVU278
 827 0416 2CEA0205 		bic	r5, ip, r2
 828              	.LVL112:
 173:fips202.c     **** 
 174:fips202.c     ****             Abe ^= De;
 829              		.loc 1 174 17 view .LVU279
 830 041a 039B     		ldr	r3, [sp, #12]
 831 041c 0C9A     		ldr	r2, [sp, #48]
 832              	.LVL113:
 171:fips202.c     ****             Egu =   BCu ^((~BCa)&  BCe );
 833              		.loc 1 171 33 view .LVU280
 834 041e 21EA0708 		bic	r8, r1, r7
 835              		.loc 1 174 17 view .LVU281
 836 0422 83EA0201 		eor	r1, r3, r2
 837              	.LVL114:
 838              		.loc 1 174 17 view .LVU282
 839 0426 049B     		ldr	r3, [sp, #16]
 840 0428 0D9A     		ldr	r2, [sp, #52]
 841 042a 5340     		eors	r3, r3, r2
 175:fips202.c     ****             BCa = ROL(Abe,  1);
 842              		.loc 1 175 17 view .LVU283
 843 042c 4FEA430C 		lsl	ip, r3, #1
 844 0430 4CEAD17C 		orr	ip, ip, r1, lsr #31
 171:fips202.c     ****             Egu =   BCu ^((~BCa)&  BCe );
 845              		.loc 1 171 17 view .LVU284
 846 0434 88EA0E0E 		eor	lr, r8, lr
 847              	.LVL115:
 171:fips202.c     ****             Egu =   BCu ^((~BCa)&  BCe );
 848              		.loc 1 171 17 view .LVU285
 849 0438 6C40     		eors	r4, r4, r5
 850              		.loc 1 175 17 view .LVU286
 851 043a 4900     		lsls	r1, r1, #1
 852 043c 41EAD371 		orr	r1, r1, r3, lsr #31
 171:fips202.c     ****             Egu =   BCu ^((~BCa)&  BCe );
 853              		.loc 1 171 17 view .LVU287
 854 0440 CDF8D8E0 		str	lr, [sp, #216]
 855              	.LVL116:
 176:fips202.c     ****             Agi ^= Di;
 856              		.loc 1 176 17 view .LVU288
 857 0444 189B     		ldr	r3, [sp, #96]
 171:fips202.c     ****             Egu =   BCu ^((~BCa)&  BCe );
 858              		.loc 1 171 17 view .LVU289
 859 0446 3794     		str	r4, [sp, #220]
 860              	.LVL117:
 172:fips202.c     **** 
 861              		.loc 1 172 13 is_stmt 1 view .LVU290
 174:fips202.c     ****             BCa = ROL(Abe,  1);
 862              		.loc 1 174 13 view .LVU291
 175:fips202.c     ****             Agi ^= Di;
 863              		.loc 1 175 13 view .LVU292
 864              		.loc 1 176 13 view .LVU293
 177:fips202.c     ****             BCe = ROL(Agi,  6);
 865              		.loc 1 177 13 view .LVU294
 176:fips202.c     ****             BCe = ROL(Agi,  6);
 866              		.loc 1 176 17 is_stmt 0 view .LVU295
 867 0448 059A     		ldr	r2, [sp, #20]
 868 044a 199C     		ldr	r4, [sp, #100]
 869              	.LVL118:
 178:fips202.c     ****             Ako ^= Do;
 179:fips202.c     ****             BCi = ROL(Ako, 25);
 180:fips202.c     ****             Amu ^= Du;
 870              		.loc 1 180 17 view .LVU296
 871 044c 319F     		ldr	r7, [sp, #196]
 181:fips202.c     ****             BCo = ROL(Amu,  8);
 182:fips202.c     ****             Asa ^= Da;
 872              		.loc 1 182 17 view .LVU297
 873 044e DDF8CC90 		ldr	r9, [sp, #204]
 176:fips202.c     ****             BCe = ROL(Agi,  6);
 874              		.loc 1 176 17 view .LVU298
 875 0452 6240     		eors	r2, r2, r4
 876 0454 8BEA0303 		eor	r3, fp, r3
 177:fips202.c     ****             Ako ^= Do;
 877              		.loc 1 177 17 view .LVU299
 878 0458 9601     		lsls	r6, r2, #6
 879 045a 46EA9366 		orr	r6, r6, r3, lsr #26
 880 045e 9B01     		lsls	r3, r3, #6
 178:fips202.c     ****             BCi = ROL(Ako, 25);
 881              		.loc 1 178 17 view .LVU300
 882 0460 249C     		ldr	r4, [sp, #144]
 177:fips202.c     ****             Ako ^= Do;
 883              		.loc 1 177 17 view .LVU301
 884 0462 43EA9263 		orr	r3, r3, r2, lsr #26
 885              	.LVL119:
 178:fips202.c     ****             BCi = ROL(Ako, 25);
 886              		.loc 1 178 13 is_stmt 1 view .LVU302
 179:fips202.c     ****             Amu ^= Du;
 887              		.loc 1 179 13 view .LVU303
 178:fips202.c     ****             BCi = ROL(Ako, 25);
 888              		.loc 1 178 17 is_stmt 0 view .LVU304
 889 0466 069A     		ldr	r2, [sp, #24]
 890 0468 82EA0405 		eor	r5, r2, r4
 891 046c 259C     		ldr	r4, [sp, #148]
 892 046e 079A     		ldr	r2, [sp, #28]
 893 0470 6240     		eors	r2, r2, r4
 179:fips202.c     ****             Amu ^= Du;
 894              		.loc 1 179 17 view .LVU305
 895 0472 4FEA4268 		lsl	r8, r2, #25
 896 0476 48EAD518 		orr	r8, r8, r5, lsr #7
 897 047a 6D06     		lsls	r5, r5, #25
 898 047c 45EAD215 		orr	r5, r5, r2, lsr #7
 899              	.LVL120:
 180:fips202.c     ****             BCo = ROL(Amu,  8);
 900              		.loc 1 180 13 is_stmt 1 view .LVU306
 181:fips202.c     ****             Asa ^= Da;
 901              		.loc 1 181 13 view .LVU307
 180:fips202.c     ****             BCo = ROL(Amu,  8);
 902              		.loc 1 180 17 is_stmt 0 view .LVU308
 903 0480 309C     		ldr	r4, [sp, #192]
 904 0482 089A     		ldr	r2, [sp, #32]
 905 0484 5440     		eors	r4, r4, r2
 906 0486 099A     		ldr	r2, [sp, #36]
 907 0488 7A40     		eors	r2, r2, r7
 181:fips202.c     ****             Asa ^= Da;
 908              		.loc 1 181 17 view .LVU309
 909 048a 4FEA022E 		lsl	lr, r2, #8
 910              	.LVL121:
 181:fips202.c     ****             Asa ^= Da;
 911              		.loc 1 181 17 view .LVU310
 912 048e 4EEA146E 		orr	lr, lr, r4, lsr #24
 913 0492 2402     		lsls	r4, r4, #8
 914              		.loc 1 182 17 view .LVU311
 915 0494 329F     		ldr	r7, [sp, #200]
 181:fips202.c     ****             Asa ^= Da;
 916              		.loc 1 181 17 view .LVU312
 917 0496 44EA1264 		orr	r4, r4, r2, lsr #24
 918              	.LVL122:
 919              		.loc 1 182 13 is_stmt 1 view .LVU313
 183:fips202.c     ****             BCu = ROL(Asa, 18);
 920              		.loc 1 183 13 view .LVU314
 182:fips202.c     ****             BCu = ROL(Asa, 18);
 921              		.loc 1 182 17 is_stmt 0 view .LVU315
 922 049a 019A     		ldr	r2, [sp, #4]
 923 049c 7A40     		eors	r2, r2, r7
 924 049e 029F     		ldr	r7, [sp, #8]
 925 04a0 87EA0909 		eor	r9, r7, r9
 926              		.loc 1 183 17 view .LVU316
 927 04a4 4FEA8947 		lsl	r7, r9, #18
 928 04a8 47EA9237 		orr	r7, r7, r2, lsr #14
 184:fips202.c     ****             Eka =   BCa ^((~BCe)&  BCi );
 929              		.loc 1 184 33 view .LVU317
 930 04ac 25EA030A 		bic	r10, r5, r3
 183:fips202.c     ****             BCu = ROL(Asa, 18);
 931              		.loc 1 183 17 view .LVU318
 932 04b0 9204     		lsls	r2, r2, #18
 933 04b2 42EA9932 		orr	r2, r2, r9, lsr #14
 934              	.LVL123:
 935              		.loc 1 184 13 is_stmt 1 view .LVU319
 936              		.loc 1 184 17 is_stmt 0 view .LVU320
 937 04b6 8AEA010A 		eor	r10, r10, r1
 938              		.loc 1 184 33 view .LVU321
 939 04ba 28EA0609 		bic	r9, r8, r6
 940              		.loc 1 184 17 view .LVU322
 941 04be 89EA0C09 		eor	r9, r9, ip
 942 04c2 CDF860A0 		str	r10, [sp, #96]
 943              	.LVL124:
 185:fips202.c     ****             Eke =   BCe ^((~BCi)&  BCo );
 944              		.loc 1 185 33 view .LVU323
 945 04c6 24EA050A 		bic	r10, r4, r5
 946              		.loc 1 185 17 view .LVU324
 947 04ca 8AEA030A 		eor	r10, r10, r3
 184:fips202.c     ****             Eka =   BCa ^((~BCe)&  BCi );
 948              		.loc 1 184 17 view .LVU325
 949 04ce CDF86490 		str	r9, [sp, #100]
 950              	.LVL125:
 951              		.loc 1 185 13 is_stmt 1 view .LVU326
 186:fips202.c     ****             Eki =   BCi ^((~BCo)&  BCu );
 187:fips202.c     ****             Eko =   BCo ^((~BCu)&  BCa );
 188:fips202.c     ****             Eku =   BCu ^((~BCa)&  BCe );
 952              		.loc 1 188 33 is_stmt 0 view .LVU327
 953 04d2 23EA0103 		bic	r3, r3, r1
 954              	.LVL126:
 185:fips202.c     ****             Eke =   BCe ^((~BCi)&  BCo );
 955              		.loc 1 185 33 view .LVU328
 956 04d6 2EEA0809 		bic	r9, lr, r8
 957              	.LVL127:
 185:fips202.c     ****             Eke =   BCe ^((~BCi)&  BCo );
 958              		.loc 1 185 17 view .LVU329
 959 04da 89EA0609 		eor	r9, r9, r6
 960              		.loc 1 188 17 view .LVU330
 961 04de 5340     		eors	r3, r3, r2
 962              		.loc 1 188 33 view .LVU331
 963 04e0 26EA0C06 		bic	r6, r6, ip
 185:fips202.c     ****             Eke =   BCe ^((~BCi)&  BCo );
 964              		.loc 1 185 17 view .LVU332
 965 04e4 CDF8C0A0 		str	r10, [sp, #192]
 966              	.LVL128:
 186:fips202.c     ****             Eki =   BCi ^((~BCo)&  BCu );
 967              		.loc 1 186 33 view .LVU333
 968 04e8 22EA040A 		bic	r10, r2, r4
 186:fips202.c     ****             Eki =   BCi ^((~BCo)&  BCu );
 969              		.loc 1 186 17 view .LVU334
 970 04ec 8AEA0505 		eor	r5, r10, r5
 971              	.LVL129:
 185:fips202.c     ****             Eke =   BCe ^((~BCi)&  BCo );
 972              		.loc 1 185 17 view .LVU335
 973 04f0 CDF8C490 		str	r9, [sp, #196]
 974              	.LVL130:
 186:fips202.c     ****             Eki =   BCi ^((~BCo)&  BCu );
 975              		.loc 1 186 13 is_stmt 1 view .LVU336
 976              		.loc 1 188 17 is_stmt 0 view .LVU337
 977 04f4 3293     		str	r3, [sp, #200]
 978              	.LVL131:
 186:fips202.c     ****             Eki =   BCi ^((~BCo)&  BCu );
 979              		.loc 1 186 33 view .LVU338
 980 04f6 27EA0E09 		bic	r9, r7, lr
 981              	.LVL132:
 982              		.loc 1 188 17 view .LVU339
 983 04fa 86EA0703 		eor	r3, r6, r7
 186:fips202.c     ****             Eki =   BCi ^((~BCo)&  BCu );
 984              		.loc 1 186 17 view .LVU340
 985 04fe 0C95     		str	r5, [sp, #48]
 986              	.LVL133:
 987              		.loc 1 188 17 view .LVU341
 988 0500 3393     		str	r3, [sp, #204]
 186:fips202.c     ****             Eki =   BCi ^((~BCo)&  BCu );
 989              		.loc 1 186 17 view .LVU342
 990 0502 89EA0805 		eor	r5, r9, r8
 189:fips202.c     **** 
 190:fips202.c     ****             Abu ^= Du;
 991              		.loc 1 190 17 view .LVU343
 992 0506 089B     		ldr	r3, [sp, #32]
 186:fips202.c     ****             Eki =   BCi ^((~BCo)&  BCu );
 993              		.loc 1 186 17 view .LVU344
 994 0508 0D95     		str	r5, [sp, #52]
 995              	.LVL134:
 187:fips202.c     ****             Eku =   BCu ^((~BCa)&  BCe );
 996              		.loc 1 187 13 is_stmt 1 view .LVU345
 187:fips202.c     ****             Eku =   BCu ^((~BCa)&  BCe );
 997              		.loc 1 187 33 is_stmt 0 view .LVU346
 998 050a 21EA0208 		bic	r8, r1, r2
 999              	.LVL135:
 1000              		.loc 1 190 17 view .LVU347
 1001 050e 129A     		ldr	r2, [sp, #72]
 1002              	.LVL136:
 1003              		.loc 1 190 17 view .LVU348
 1004 0510 83EA0201 		eor	r1, r3, r2
 1005              	.LVL137:
 1006              		.loc 1 190 17 view .LVU349
 1007 0514 139A     		ldr	r2, [sp, #76]
 1008 0516 099B     		ldr	r3, [sp, #36]
 1009 0518 5340     		eors	r3, r3, r2
 187:fips202.c     ****             Eku =   BCu ^((~BCa)&  BCe );
 1010              		.loc 1 187 33 view .LVU350
 1011 051a 2CEA0705 		bic	r5, ip, r7
 1012              	.LVL138:
 191:fips202.c     ****             BCa = ROL(Abu, 27);
 1013              		.loc 1 191 17 view .LVU351
 1014 051e 4FEAC36C 		lsl	ip, r3, #27
 1015 0522 4CEA511C 		orr	ip, ip, r1, lsr #5
 1016 0526 C906     		lsls	r1, r1, #27
 1017 0528 41EA5311 		orr	r1, r1, r3, lsr #5
 187:fips202.c     ****             Eku =   BCu ^((~BCa)&  BCe );
 1018              		.loc 1 187 17 view .LVU352
 1019 052c 88EA0404 		eor	r4, r8, r4
 1020              	.LVL139:
 192:fips202.c     ****             Aga ^= Da;
 1021              		.loc 1 192 17 view .LVU353
 1022 0530 019B     		ldr	r3, [sp, #4]
 1023 0532 149A     		ldr	r2, [sp, #80]
 187:fips202.c     ****             Eku =   BCu ^((~BCa)&  BCe );
 1024              		.loc 1 187 17 view .LVU354
 1025 0534 2494     		str	r4, [sp, #144]
 1026              	.LVL140:
 187:fips202.c     ****             Eku =   BCu ^((~BCa)&  BCe );
 1027              		.loc 1 187 17 view .LVU355
 1028 0536 85EA0E04 		eor	r4, r5, lr
 1029              		.loc 1 192 17 view .LVU356
 1030 053a 5A40     		eors	r2, r2, r3
 187:fips202.c     ****             Eku =   BCu ^((~BCa)&  BCe );
 1031              		.loc 1 187 17 view .LVU357
 1032 053c 2594     		str	r4, [sp, #148]
 1033              	.LVL141:
 188:fips202.c     **** 
 1034              		.loc 1 188 13 is_stmt 1 view .LVU358
 190:fips202.c     ****             BCa = ROL(Abu, 27);
 1035              		.loc 1 190 13 view .LVU359
 191:fips202.c     ****             Aga ^= Da;
 1036              		.loc 1 191 13 view .LVU360
 1037              		.loc 1 192 13 view .LVU361
 193:fips202.c     ****             BCe = ROL(Aga, 36);
 1038              		.loc 1 193 13 view .LVU362
 192:fips202.c     ****             BCe = ROL(Aga, 36);
 1039              		.loc 1 192 17 is_stmt 0 view .LVU363
 1040 053e 029B     		ldr	r3, [sp, #8]
 1041 0540 159C     		ldr	r4, [sp, #84]
 1042              	.LVL142:
 1043              		.loc 1 193 17 view .LVU364
 1044 0542 160F     		lsrs	r6, r2, #28
 192:fips202.c     ****             BCe = ROL(Aga, 36);
 1045              		.loc 1 192 17 view .LVU365
 1046 0544 6340     		eors	r3, r3, r4
 1047              		.loc 1 193 17 view .LVU366
 1048 0546 46EA0316 		orr	r6, r6, r3, lsl #4
 1049 054a 1B0F     		lsrs	r3, r3, #28
 1050 054c 43EA0213 		orr	r3, r3, r2, lsl #4
 1051              	.LVL143:
 194:fips202.c     ****             Ake ^= De;
 1052              		.loc 1 194 13 is_stmt 1 view .LVU367
 195:fips202.c     ****             BCi = ROL(Ake, 10);
 1053              		.loc 1 195 13 view .LVU368
 194:fips202.c     ****             Ake ^= De;
 1054              		.loc 1 194 17 is_stmt 0 view .LVU369
 1055 0550 039A     		ldr	r2, [sp, #12]
 1056 0552 209C     		ldr	r4, [sp, #128]
 196:fips202.c     ****             Ami ^= Di;
 1057              		.loc 1 196 17 view .LVU370
 1058 0554 2D9F     		ldr	r7, [sp, #180]
 194:fips202.c     ****             Ake ^= De;
 1059              		.loc 1 194 17 view .LVU371
 1060 0556 82EA0405 		eor	r5, r2, r4
 1061 055a 219C     		ldr	r4, [sp, #132]
 1062 055c 049A     		ldr	r2, [sp, #16]
 1063 055e 6240     		eors	r2, r2, r4
 195:fips202.c     ****             BCi = ROL(Ake, 10);
 1064              		.loc 1 195 17 view .LVU372
 1065 0560 4FEA8228 		lsl	r8, r2, #10
 1066 0564 48EA9558 		orr	r8, r8, r5, lsr #22
 1067 0568 AD02     		lsls	r5, r5, #10
 1068 056a 45EA9255 		orr	r5, r5, r2, lsr #22
 1069              	.LVL144:
 1070              		.loc 1 196 13 is_stmt 1 view .LVU373
 197:fips202.c     ****             BCo = ROL(Ami, 15);
 1071              		.loc 1 197 13 view .LVU374
 196:fips202.c     ****             Ami ^= Di;
 1072              		.loc 1 196 17 is_stmt 0 view .LVU375
 1073 056e 2C9A     		ldr	r2, [sp, #176]
 1074 0570 8BEA0204 		eor	r4, fp, r2
 1075 0574 059A     		ldr	r2, [sp, #20]
 1076 0576 7A40     		eors	r2, r2, r7
 1077              		.loc 1 197 17 view .LVU376
 1078 0578 4FEAC23E 		lsl	lr, r2, #15
 1079 057c 4EEA544E 		orr	lr, lr, r4, lsr #17
 1080 0580 E403     		lsls	r4, r4, #15
 198:fips202.c     ****             Aso ^= Do;
 1081              		.loc 1 198 17 view .LVU377
 1082 0582 389F     		ldr	r7, [sp, #224]
 197:fips202.c     ****             BCo = ROL(Ami, 15);
 1083              		.loc 1 197 17 view .LVU378
 1084 0584 44EA5244 		orr	r4, r4, r2, lsr #17
 1085              	.LVL145:
 1086              		.loc 1 198 13 is_stmt 1 view .LVU379
 199:fips202.c     ****             BCu = ROL(Aso, 56);
 1087              		.loc 1 199 13 view .LVU380
 198:fips202.c     ****             Aso ^= Do;
 1088              		.loc 1 198 17 is_stmt 0 view .LVU381
 1089 0588 069A     		ldr	r2, [sp, #24]
 1090 058a 82EA0709 		eor	r9, r2, r7
 1091 058e 399F     		ldr	r7, [sp, #228]
 1092 0590 079A     		ldr	r2, [sp, #28]
 1093 0592 7A40     		eors	r2, r2, r7
 1094              		.loc 1 199 17 view .LVU382
 1095 0594 4FEA1927 		lsr	r7, r9, #8
 1096 0598 47EA0267 		orr	r7, r7, r2, lsl #24
 200:fips202.c     ****             Ema =   BCa ^((~BCe)&  BCi );
 1097              		.loc 1 200 33 view .LVU383
 1098 059c 25EA060A 		bic	r10, r5, r6
 199:fips202.c     ****             BCu = ROL(Aso, 56);
 1099              		.loc 1 199 17 view .LVU384
 1100 05a0 120A     		lsrs	r2, r2, #8
 1101 05a2 42EA0962 		orr	r2, r2, r9, lsl #24
 1102              	.LVL146:
 1103              		.loc 1 200 13 is_stmt 1 view .LVU385
 1104              		.loc 1 200 17 is_stmt 0 view .LVU386
 1105 05a6 8AEA010A 		eor	r10, r10, r1
 1106              		.loc 1 200 33 view .LVU387
 1107 05aa 28EA0309 		bic	r9, r8, r3
 1108              		.loc 1 200 17 view .LVU388
 1109 05ae 89EA0C09 		eor	r9, r9, ip
 1110 05b2 CDF8E0A0 		str	r10, [sp, #224]
 1111              	.LVL147:
 201:fips202.c     ****             Eme =   BCe ^((~BCi)&  BCo );
 1112              		.loc 1 201 33 view .LVU389
 1113 05b6 24EA050A 		bic	r10, r4, r5
 1114              		.loc 1 201 17 view .LVU390
 1115 05ba 8AEA060A 		eor	r10, r10, r6
 200:fips202.c     ****             Ema =   BCa ^((~BCe)&  BCi );
 1116              		.loc 1 200 17 view .LVU391
 1117 05be CDF8E490 		str	r9, [sp, #228]
 1118              	.LVL148:
 1119              		.loc 1 201 13 is_stmt 1 view .LVU392
 1120              		.loc 1 201 33 is_stmt 0 view .LVU393
 1121 05c2 2EEA0809 		bic	r9, lr, r8
 1122              	.LVL149:
 1123              		.loc 1 201 17 view .LVU394
 1124 05c6 89EA0309 		eor	r9, r9, r3
 1125 05ca CDF850A0 		str	r10, [sp, #80]
 1126              	.LVL150:
 202:fips202.c     ****             Emi =   BCi ^((~BCo)&  BCu );
 203:fips202.c     ****             Emo =   BCo ^((~BCu)&  BCa );
 204:fips202.c     ****             Emu =   BCu ^((~BCa)&  BCe );
 1127              		.loc 1 204 33 view .LVU395
 1128 05ce 23EA0C03 		bic	r3, r3, ip
 1129              	.LVL151:
 202:fips202.c     ****             Emi =   BCi ^((~BCo)&  BCu );
 1130              		.loc 1 202 33 view .LVU396
 1131 05d2 27EA040A 		bic	r10, r7, r4
 202:fips202.c     ****             Emi =   BCi ^((~BCo)&  BCu );
 1132              		.loc 1 202 17 view .LVU397
 1133 05d6 8AEA0505 		eor	r5, r10, r5
 1134              	.LVL152:
 1135              		.loc 1 204 17 view .LVU398
 1136 05da 5340     		eors	r3, r3, r2
 201:fips202.c     ****             Eme =   BCe ^((~BCi)&  BCo );
 1137              		.loc 1 201 17 view .LVU399
 1138 05dc CDF85490 		str	r9, [sp, #84]
 1139              	.LVL153:
 202:fips202.c     ****             Emi =   BCi ^((~BCo)&  BCu );
 1140              		.loc 1 202 13 is_stmt 1 view .LVU400
 1141              		.loc 1 204 33 is_stmt 0 view .LVU401
 1142 05e0 26EA0106 		bic	r6, r6, r1
 202:fips202.c     ****             Emi =   BCi ^((~BCo)&  BCu );
 1143              		.loc 1 202 33 view .LVU402
 1144 05e4 22EA0E09 		bic	r9, r2, lr
 1145              	.LVL154:
 202:fips202.c     ****             Emi =   BCi ^((~BCo)&  BCu );
 1146              		.loc 1 202 17 view .LVU403
 1147 05e8 2C95     		str	r5, [sp, #176]
 1148              	.LVL155:
 1149              		.loc 1 204 17 view .LVU404
 1150 05ea 2193     		str	r3, [sp, #132]
 1151              	.LVL156:
 202:fips202.c     ****             Emi =   BCi ^((~BCo)&  BCu );
 1152              		.loc 1 202 17 view .LVU405
 1153 05ec 89EA0805 		eor	r5, r9, r8
 205:fips202.c     **** 
 206:fips202.c     ****             Abi ^= Di;
 1154              		.loc 1 206 17 view .LVU406
 1155 05f0 0E9B     		ldr	r3, [sp, #56]
 202:fips202.c     ****             Emi =   BCi ^((~BCo)&  BCu );
 1156              		.loc 1 202 17 view .LVU407
 1157 05f2 2D95     		str	r5, [sp, #180]
 1158              	.LVL157:
 203:fips202.c     ****             Emu =   BCu ^((~BCa)&  BCe );
 1159              		.loc 1 203 13 is_stmt 1 view .LVU408
 203:fips202.c     ****             Emu =   BCu ^((~BCa)&  BCe );
 1160              		.loc 1 203 33 is_stmt 0 view .LVU409
 1161 05f4 21EA0708 		bic	r8, r1, r7
 204:fips202.c     **** 
 1162              		.loc 1 204 17 view .LVU410
 1163 05f8 86EA0701 		eor	r1, r6, r7
 1164              	.LVL158:
 203:fips202.c     ****             Emu =   BCu ^((~BCa)&  BCe );
 1165              		.loc 1 203 33 view .LVU411
 1166 05fc 2CEA0205 		bic	r5, ip, r2
 1167              	.LVL159:
 203:fips202.c     ****             Emu =   BCu ^((~BCa)&  BCe );
 1168              		.loc 1 203 17 view .LVU412
 1169 0600 88EA0404 		eor	r4, r8, r4
 1170              	.LVL160:
 1171              		.loc 1 206 17 view .LVU413
 1172 0604 059A     		ldr	r2, [sp, #20]
 1173              	.LVL161:
 204:fips202.c     **** 
 1174              		.loc 1 204 17 view .LVU414
 1175 0606 2091     		str	r1, [sp, #128]
 1176              		.loc 1 206 17 view .LVU415
 1177 0608 0F99     		ldr	r1, [sp, #60]
 203:fips202.c     ****             Emu =   BCu ^((~BCa)&  BCe );
 1178              		.loc 1 203 17 view .LVU416
 1179 060a 1294     		str	r4, [sp, #72]
 1180              	.LVL162:
 1181              		.loc 1 206 17 view .LVU417
 1182 060c 8BEA0303 		eor	r3, fp, r3
 203:fips202.c     ****             Emu =   BCu ^((~BCa)&  BCe );
 1183              		.loc 1 203 17 view .LVU418
 1184 0610 85EA0E04 		eor	r4, r5, lr
 1185 0614 1394     		str	r4, [sp, #76]
 1186              	.LVL163:
 204:fips202.c     **** 
 1187              		.loc 1 204 13 is_stmt 1 view .LVU419
 1188              		.loc 1 206 13 view .LVU420
 207:fips202.c     ****             BCa = ROL(Abi, 62);
 1189              		.loc 1 207 13 view .LVU421
 1190              		.loc 1 207 17 is_stmt 0 view .LVU422
 1191 0616 9D08     		lsrs	r5, r3, #2
 206:fips202.c     ****             BCa = ROL(Abi, 62);
 1192              		.loc 1 206 17 view .LVU423
 1193 0618 82EA0104 		eor	r4, r2, r1
 1194              	.LVL164:
 1195              		.loc 1 207 17 view .LVU424
 1196 061c 45EA8475 		orr	r5, r5, r4, lsl #30
 1197 0620 A408     		lsrs	r4, r4, #2
 1198 0622 44EA8374 		orr	r4, r4, r3, lsl #30
 1199              	.LVL165:
 208:fips202.c     ****             Ago ^= Do;
 1200              		.loc 1 208 13 is_stmt 1 view .LVU425
 209:fips202.c     ****             BCe = ROL(Ago, 55);
 1201              		.loc 1 209 13 view .LVU426
 208:fips202.c     ****             Ago ^= Do;
 1202              		.loc 1 208 17 is_stmt 0 view .LVU427
 1203 0626 1A9A     		ldr	r2, [sp, #104]
 1204 0628 069B     		ldr	r3, [sp, #24]
 210:fips202.c     ****             Aku ^= Du;
 1205              		.loc 1 210 17 view .LVU428
 1206 062a 269E     		ldr	r6, [sp, #152]
 1207 062c 279F     		ldr	r7, [sp, #156]
 208:fips202.c     ****             Ago ^= Do;
 1208              		.loc 1 208 17 view .LVU429
 1209 062e 83EA0201 		eor	r1, r3, r2
 1210 0632 079B     		ldr	r3, [sp, #28]
 1211 0634 1B9A     		ldr	r2, [sp, #108]
 1212 0636 5A40     		eors	r2, r2, r3
 209:fips202.c     ****             BCe = ROL(Ago, 55);
 1213              		.loc 1 209 17 view .LVU430
 1214 0638 4B0A     		lsrs	r3, r1, #9
 1215 063a 43EAC253 		orr	r3, r3, r2, lsl #23
 1216 063e 520A     		lsrs	r2, r2, #9
 1217 0640 42EAC152 		orr	r2, r2, r1, lsl #23
 1218              	.LVL166:
 1219              		.loc 1 210 13 is_stmt 1 view .LVU431
 211:fips202.c     ****             BCi = ROL(Aku, 39);
 1220              		.loc 1 211 13 view .LVU432
 210:fips202.c     ****             Aku ^= Du;
 1221              		.loc 1 210 17 is_stmt 0 view .LVU433
 1222 0644 0899     		ldr	r1, [sp, #32]
 1223 0646 7140     		eors	r1, r1, r6
 1224 0648 099E     		ldr	r6, [sp, #36]
 1225              		.loc 1 211 17 view .LVU434
 1226 064a 4FEA516C 		lsr	ip, r1, #25
 210:fips202.c     ****             Aku ^= Du;
 1227              		.loc 1 210 17 view .LVU435
 1228 064e 7740     		eors	r7, r7, r6
 1229              		.loc 1 211 17 view .LVU436
 1230 0650 4CEAC71C 		orr	ip, ip, r7, lsl #7
 1231 0654 7F0E     		lsrs	r7, r7, #25
 1232 0656 47EAC117 		orr	r7, r7, r1, lsl #7
 1233              	.LVL167:
 212:fips202.c     ****             Ama ^= Da;
 1234              		.loc 1 212 13 is_stmt 1 view .LVU437
 213:fips202.c     ****             BCo = ROL(Ama, 41);
 1235              		.loc 1 213 13 view .LVU438
 212:fips202.c     ****             Ama ^= Da;
 1236              		.loc 1 212 17 is_stmt 0 view .LVU439
 1237 065a 0199     		ldr	r1, [sp, #4]
 1238 065c 289E     		ldr	r6, [sp, #160]
 1239 065e DDF8A4E0 		ldr	lr, [sp, #164]
 214:fips202.c     ****             Ase ^= De;
 1240              		.loc 1 214 17 view .LVU440
 1241 0662 DDF8D490 		ldr	r9, [sp, #212]
 212:fips202.c     ****             Ama ^= Da;
 1242              		.loc 1 212 17 view .LVU441
 1243 0666 7140     		eors	r1, r1, r6
 1244 0668 029E     		ldr	r6, [sp, #8]
 213:fips202.c     ****             BCo = ROL(Ama, 41);
 1245              		.loc 1 213 17 view .LVU442
 1246 066a 4FEAD158 		lsr	r8, r1, #23
 212:fips202.c     ****             Ama ^= Da;
 1247              		.loc 1 212 17 view .LVU443
 1248 066e 86EA0E06 		eor	r6, r6, lr
 213:fips202.c     ****             BCo = ROL(Ama, 41);
 1249              		.loc 1 213 17 view .LVU444
 1250 0672 48EA4628 		orr	r8, r8, r6, lsl #9
 1251 0676 F60D     		lsrs	r6, r6, #23
 1252              		.loc 1 214 17 view .LVU445
 1253 0678 DDF8D0E0 		ldr	lr, [sp, #208]
 213:fips202.c     ****             BCo = ROL(Ama, 41);
 1254              		.loc 1 213 17 view .LVU446
 1255 067c 46EA4126 		orr	r6, r6, r1, lsl #9
 1256              	.LVL168:
 1257              		.loc 1 214 13 is_stmt 1 view .LVU447
 215:fips202.c     ****             BCu = ROL(Ase,  2);
 1258              		.loc 1 215 13 view .LVU448
 214:fips202.c     ****             Ase ^= De;
 1259              		.loc 1 214 17 is_stmt 0 view .LVU449
 1260 0680 0399     		ldr	r1, [sp, #12]
 1261 0682 81EA0E01 		eor	r1, r1, lr
 1262 0686 DDF810E0 		ldr	lr, [sp, #16]
 1263 068a 8EEA0909 		eor	r9, lr, r9
 1264              		.loc 1 215 17 view .LVU450
 1265 068e 4FEA890E 		lsl	lr, r9, #2
 1266 0692 4EEA917E 		orr	lr, lr, r1, lsr #30
 216:fips202.c     ****             Esa =   BCa ^((~BCe)&  BCi );
 1267              		.loc 1 216 33 view .LVU451
 1268 0696 2CEA030A 		bic	r10, ip, r3
 215:fips202.c     ****             BCu = ROL(Ase,  2);
 1269              		.loc 1 215 17 view .LVU452
 1270 069a 8900     		lsls	r1, r1, #2
 1271 069c 41EA9971 		orr	r1, r1, r9, lsr #30
 1272              	.LVL169:
 1273              		.loc 1 216 13 is_stmt 1 view .LVU453
 1274              		.loc 1 216 17 is_stmt 0 view .LVU454
 1275 06a0 8AEA050A 		eor	r10, r10, r5
 1276              		.loc 1 216 33 view .LVU455
 1277 06a4 27EA0209 		bic	r9, r7, r2
 1278              		.loc 1 216 17 view .LVU456
 1279 06a8 CDF898A0 		str	r10, [sp, #152]
 1280              	.LVL170:
 1281              		.loc 1 216 17 view .LVU457
 1282 06ac 89EA0409 		eor	r9, r9, r4
 217:fips202.c     ****             Ese =   BCe ^((~BCi)&  BCo );
 1283              		.loc 1 217 33 view .LVU458
 1284 06b0 28EA0C0A 		bic	r10, r8, ip
 216:fips202.c     ****             Esa =   BCa ^((~BCe)&  BCi );
 1285              		.loc 1 216 17 view .LVU459
 1286 06b4 CDF89C90 		str	r9, [sp, #156]
 1287              	.LVL171:
 1288              		.loc 1 217 13 is_stmt 1 view .LVU460
 1289              		.loc 1 217 17 is_stmt 0 view .LVU461
 1290 06b8 8AEA030A 		eor	r10, r10, r3
 1291              		.loc 1 217 33 view .LVU462
 1292 06bc 26EA0709 		bic	r9, r6, r7
 1293              	.LVL172:
 218:fips202.c     ****             Esi =   BCi ^((~BCo)&  BCu );
 219:fips202.c     ****             Eso =   BCo ^((~BCu)&  BCa );
 220:fips202.c     ****             Esu =   BCu ^((~BCa)&  BCe );
 1294              		.loc 1 220 33 view .LVU463
 1295 06c0 23EA0503 		bic	r3, r3, r5
 1296              	.LVL173:
 217:fips202.c     ****             Ese =   BCe ^((~BCi)&  BCo );
 1297              		.loc 1 217 17 view .LVU464
 1298 06c4 89EA0209 		eor	r9, r9, r2
 1299              		.loc 1 220 17 view .LVU465
 1300 06c8 4B40     		eors	r3, r3, r1
 1301              		.loc 1 220 33 view .LVU466
 1302 06ca 22EA0402 		bic	r2, r2, r4
 1303              	.LVL174:
 1304              		.loc 1 220 17 view .LVU467
 1305 06ce 0E93     		str	r3, [sp, #56]
 1306              	.LVL175:
 1307              		.loc 1 220 17 view .LVU468
 1308 06d0 82EA0E03 		eor	r3, r2, lr
 217:fips202.c     ****             Ese =   BCe ^((~BCi)&  BCo );
 1309              		.loc 1 217 17 view .LVU469
 1310 06d4 CDF8D0A0 		str	r10, [sp, #208]
 1311              	.LVL176:
 221:fips202.c     **** 
 222:fips202.c     ****             //    prepareTheta
 223:fips202.c     ****             BCa = Eba^Ega^Eka^Ema^Esa;
 1312              		.loc 1 223 17 view .LVU470
 1313 06d8 2A9A     		ldr	r2, [sp, #168]
 217:fips202.c     ****             Esi =   BCi ^((~BCo)&  BCu );
 1314              		.loc 1 217 17 view .LVU471
 1315 06da CDF8D490 		str	r9, [sp, #212]
 1316              	.LVL177:
 218:fips202.c     ****             Esi =   BCi ^((~BCo)&  BCu );
 1317              		.loc 1 218 13 is_stmt 1 view .LVU472
 218:fips202.c     ****             Esi =   BCi ^((~BCo)&  BCu );
 1318              		.loc 1 218 33 is_stmt 0 view .LVU473
 1319 06de 21EA080A 		bic	r10, r1, r8
 1320              	.LVL178:
 218:fips202.c     ****             Esi =   BCi ^((~BCo)&  BCu );
 1321              		.loc 1 218 33 view .LVU474
 1322 06e2 2EEA0609 		bic	r9, lr, r6
 1323              	.LVL179:
 220:fips202.c     **** 
 1324              		.loc 1 220 17 view .LVU475
 1325 06e6 0F93     		str	r3, [sp, #60]
 1326              		.loc 1 223 17 view .LVU476
 1327 06e8 0A9B     		ldr	r3, [sp, #40]
 218:fips202.c     ****             Eso =   BCo ^((~BCu)&  BCa );
 1328              		.loc 1 218 17 view .LVU477
 1329 06ea 8AEA0C0C 		eor	ip, r10, ip
 1330              	.LVL180:
 218:fips202.c     ****             Eso =   BCo ^((~BCu)&  BCa );
 1331              		.loc 1 218 17 view .LVU478
 1332 06ee 89EA0707 		eor	r7, r9, r7
 1333 06f2 CDF868C0 		str	ip, [sp, #104]
 1334              	.LVL181:
 218:fips202.c     ****             Eso =   BCo ^((~BCu)&  BCa );
 1335              		.loc 1 218 17 view .LVU479
 1336 06f6 1B97     		str	r7, [sp, #108]
 1337              	.LVL182:
 219:fips202.c     ****             Esu =   BCu ^((~BCa)&  BCe );
 1338              		.loc 1 219 13 is_stmt 1 view .LVU480
 219:fips202.c     ****             Esu =   BCu ^((~BCa)&  BCe );
 1339              		.loc 1 219 33 is_stmt 0 view .LVU481
 1340 06f8 25EA010C 		bic	ip, r5, r1
 1341              	.LVL183:
 219:fips202.c     ****             Esu =   BCu ^((~BCa)&  BCe );
 1342              		.loc 1 219 33 view .LVU482
 1343 06fc 24EA0E07 		bic	r7, r4, lr
 1344              	.LVL184:
 1345              		.loc 1 223 17 view .LVU483
 1346 0700 2B99     		ldr	r1, [sp, #172]
 1347              	.LVL185:
 1348              		.loc 1 223 17 view .LVU484
 1349 0702 5A40     		eors	r2, r2, r3
 1350 0704 0B9B     		ldr	r3, [sp, #44]
 219:fips202.c     ****             Esu =   BCu ^((~BCa)&  BCe );
 1351              		.loc 1 219 17 view .LVU485
 1352 0706 7E40     		eors	r6, r6, r7
 1353              	.LVL186:
 219:fips202.c     ****             Esu =   BCu ^((~BCa)&  BCe );
 1354              		.loc 1 219 17 view .LVU486
 1355 0708 2996     		str	r6, [sp, #164]
 1356              	.LVL187:
 220:fips202.c     **** 
 1357              		.loc 1 220 13 is_stmt 1 view .LVU487
 1358              		.loc 1 223 13 view .LVU488
 1359              		.loc 1 223 17 is_stmt 0 view .LVU489
 1360 070a 83EA0106 		eor	r6, r3, r1
 1361              	.LVL188:
 1362              		.loc 1 223 17 view .LVU490
 1363 070e 1899     		ldr	r1, [sp, #96]
 224:fips202.c     ****             BCe = Ebe^Ege^Eke^Eme^Ese;
 1364              		.loc 1 224 22 view .LVU491
 1365 0710 229B     		ldr	r3, [sp, #136]
 223:fips202.c     ****             BCe = Ebe^Ege^Eke^Eme^Ese;
 1366              		.loc 1 223 17 view .LVU492
 1367 0712 4A40     		eors	r2, r2, r1
 1368 0714 1999     		ldr	r1, [sp, #100]
 1369 0716 4E40     		eors	r6, r6, r1
 1370 0718 3899     		ldr	r1, [sp, #224]
 1371 071a 4A40     		eors	r2, r2, r1
 1372 071c 3999     		ldr	r1, [sp, #228]
 1373 071e 4E40     		eors	r6, r6, r1
 1374 0720 2699     		ldr	r1, [sp, #152]
 1375 0722 4A40     		eors	r2, r2, r1
 1376 0724 2799     		ldr	r1, [sp, #156]
 1377 0726 4E40     		eors	r6, r6, r1
 1378              	.LVL189:
 1379              		.loc 1 224 13 is_stmt 1 view .LVU493
 1380              		.loc 1 224 22 is_stmt 0 view .LVU494
 1381 0728 1099     		ldr	r1, [sp, #64]
 1382 072a 83EA0109 		eor	r9, r3, r1
 1383 072e 1199     		ldr	r1, [sp, #68]
 1384 0730 239B     		ldr	r3, [sp, #140]
 219:fips202.c     ****             Esu =   BCu ^((~BCa)&  BCe );
 1385              		.loc 1 219 17 view .LVU495
 1386 0732 8CEA080C 		eor	ip, ip, r8
 1387 0736 CDF8A0C0 		str	ip, [sp, #160]
 1388              	.LVL190:
 1389              		.loc 1 224 22 view .LVU496
 1390 073a 83EA0108 		eor	r8, r3, r1
 1391              		.loc 1 224 26 view .LVU497
 1392 073e 309B     		ldr	r3, [sp, #192]
 225:fips202.c     ****             BCi = Ebi^Egi^Eki^Emi^Esi;
 1393              		.loc 1 225 22 view .LVU498
 1394 0740 1E99     		ldr	r1, [sp, #120]
 226:fips202.c     ****             BCo = Ebo^Ego^Eko^Emo^Eso;
 227:fips202.c     ****             BCu = Ebu^Egu^Eku^Emu^Esu;
 1395              		.loc 1 227 26 view .LVU499
 1396 0742 DDF8CCE0 		ldr	lr, [sp, #204]
 224:fips202.c     ****             BCi = Ebi^Egi^Eki^Emi^Esi;
 1397              		.loc 1 224 26 view .LVU500
 1398 0746 89EA0309 		eor	r9, r9, r3
 1399 074a 319B     		ldr	r3, [sp, #196]
 1400 074c 88EA0308 		eor	r8, r8, r3
 224:fips202.c     ****             BCi = Ebi^Egi^Eki^Emi^Esi;
 1401              		.loc 1 224 30 view .LVU501
 1402 0750 149B     		ldr	r3, [sp, #80]
 1403 0752 89EA0309 		eor	r9, r9, r3
 1404 0756 159B     		ldr	r3, [sp, #84]
 1405 0758 88EA0308 		eor	r8, r8, r3
 224:fips202.c     ****             BCi = Ebi^Egi^Eki^Emi^Esi;
 1406              		.loc 1 224 17 view .LVU502
 1407 075c 349B     		ldr	r3, [sp, #208]
 1408 075e 89EA0309 		eor	r9, r9, r3
 1409 0762 359B     		ldr	r3, [sp, #212]
 1410 0764 88EA0308 		eor	r8, r8, r3
 1411              	.LVL191:
 225:fips202.c     ****             BCi = Ebi^Egi^Eki^Emi^Esi;
 1412              		.loc 1 225 13 is_stmt 1 view .LVU503
 225:fips202.c     ****             BCi = Ebi^Egi^Eki^Emi^Esi;
 1413              		.loc 1 225 22 is_stmt 0 view .LVU504
 1414 0768 3A9B     		ldr	r3, [sp, #232]
 1415 076a 83EA010C 		eor	ip, r3, r1
 1416 076e 3B9B     		ldr	r3, [sp, #236]
 1417 0770 1F99     		ldr	r1, [sp, #124]
 1418 0772 83EA0107 		eor	r7, r3, r1
 225:fips202.c     ****             BCi = Ebi^Egi^Eki^Emi^Esi;
 1419              		.loc 1 225 26 view .LVU505
 1420 0776 0C9B     		ldr	r3, [sp, #48]
 1421 0778 0D99     		ldr	r1, [sp, #52]
 1422 077a 8CEA030C 		eor	ip, ip, r3
 1423 077e 4F40     		eors	r7, r7, r1
 225:fips202.c     ****             BCi = Ebi^Egi^Eki^Emi^Esi;
 1424              		.loc 1 225 30 view .LVU506
 1425 0780 2C9B     		ldr	r3, [sp, #176]
 1426 0782 2D99     		ldr	r1, [sp, #180]
 1427 0784 8CEA030C 		eor	ip, ip, r3
 1428 0788 4F40     		eors	r7, r7, r1
 225:fips202.c     ****             BCi = Ebi^Egi^Eki^Emi^Esi;
 1429              		.loc 1 225 17 view .LVU507
 1430 078a 1A9B     		ldr	r3, [sp, #104]
 1431 078c 1B99     		ldr	r1, [sp, #108]
 1432 078e 8CEA030C 		eor	ip, ip, r3
 1433 0792 4F40     		eors	r7, r7, r1
 1434              	.LVL192:
 226:fips202.c     ****             BCo = Ebo^Ego^Eko^Emo^Eso;
 1435              		.loc 1 226 13 is_stmt 1 view .LVU508
 226:fips202.c     ****             BCo = Ebo^Ego^Eko^Emo^Eso;
 1436              		.loc 1 226 22 is_stmt 0 view .LVU509
 1437 0794 169B     		ldr	r3, [sp, #88]
 1438 0796 3699     		ldr	r1, [sp, #216]
 1439 0798 83EA0105 		eor	r5, r3, r1
 1440 079c 179B     		ldr	r3, [sp, #92]
 1441 079e 3799     		ldr	r1, [sp, #220]
 1442 07a0 83EA0104 		eor	r4, r3, r1
 226:fips202.c     ****             BCo = Ebo^Ego^Eko^Emo^Eso;
 1443              		.loc 1 226 26 view .LVU510
 1444 07a4 2499     		ldr	r1, [sp, #144]
 1445              		.loc 1 227 26 view .LVU511
 1446 07a6 1C9B     		ldr	r3, [sp, #112]
 226:fips202.c     ****             BCo = Ebo^Ego^Eko^Emo^Eso;
 1447              		.loc 1 226 26 view .LVU512
 1448 07a8 4D40     		eors	r5, r5, r1
 1449 07aa 2599     		ldr	r1, [sp, #148]
 1450 07ac 4C40     		eors	r4, r4, r1
 226:fips202.c     ****             BCo = Ebo^Ego^Eko^Emo^Eso;
 1451              		.loc 1 226 30 view .LVU513
 1452 07ae 1299     		ldr	r1, [sp, #72]
 1453 07b0 4D40     		eors	r5, r5, r1
 1454 07b2 1399     		ldr	r1, [sp, #76]
 1455 07b4 4C40     		eors	r4, r4, r1
 226:fips202.c     ****             BCo = Ebo^Ego^Eko^Emo^Eso;
 1456              		.loc 1 226 17 view .LVU514
 1457 07b6 2899     		ldr	r1, [sp, #160]
 1458 07b8 4D40     		eors	r5, r5, r1
 1459 07ba 2999     		ldr	r1, [sp, #164]
 1460 07bc 4C40     		eors	r4, r4, r1
 1461              	.LVL193:
 1462              		.loc 1 227 13 is_stmt 1 view .LVU515
 1463              		.loc 1 227 26 is_stmt 0 view .LVU516
 1464 07be 3299     		ldr	r1, [sp, #200]
 1465 07c0 5940     		eors	r1, r1, r3
 1466 07c2 1D9B     		ldr	r3, [sp, #116]
 1467 07c4 83EA0E0E 		eor	lr, r3, lr
 1468 07c8 2E9B     		ldr	r3, [sp, #184]
 1469 07ca 5940     		eors	r1, r1, r3
 1470 07cc 2F9B     		ldr	r3, [sp, #188]
 1471 07ce 8EEA030E 		eor	lr, lr, r3
 1472              		.loc 1 227 30 view .LVU517
 1473 07d2 209B     		ldr	r3, [sp, #128]
 1474 07d4 5940     		eors	r1, r1, r3
 1475 07d6 219B     		ldr	r3, [sp, #132]
 1476 07d8 8EEA030E 		eor	lr, lr, r3
 1477              		.loc 1 227 17 view .LVU518
 1478 07dc 0E9B     		ldr	r3, [sp, #56]
 228:fips202.c     **** 
 229:fips202.c     ****             //thetaRhoPiChiIotaPrepareTheta(round+1, E, A)
 230:fips202.c     ****             Da = BCu^ROL(BCe, 1);
 1479              		.loc 1 230 22 view .LVU519
 1480 07de 4FEA490B 		lsl	fp, r9, #1
 1481              	.LVL194:
 227:fips202.c     **** 
 1482              		.loc 1 227 17 view .LVU520
 1483 07e2 5940     		eors	r1, r1, r3
 1484 07e4 0F9B     		ldr	r3, [sp, #60]
 1485              		.loc 1 230 22 view .LVU521
 1486 07e6 4BEAD87B 		orr	fp, fp, r8, lsr #31
 1487 07ea 4FEA480A 		lsl	r10, r8, #1
 227:fips202.c     **** 
 1488              		.loc 1 227 17 view .LVU522
 1489 07ee 8EEA030E 		eor	lr, lr, r3
 1490              	.LVL195:
 1491              		.loc 1 230 13 is_stmt 1 view .LVU523
 1492              		.loc 1 230 22 is_stmt 0 view .LVU524
 1493 07f2 4AEAD97A 		orr	r10, r10, r9, lsr #31
 1494              		.loc 1 230 16 view .LVU525
 1495 07f6 8BEA0103 		eor	r3, fp, r1
 231:fips202.c     ****             De = BCa^ROL(BCi, 1);
 1496              		.loc 1 231 22 view .LVU526
 1497 07fa 4FEA4C0B 		lsl	fp, ip, #1
 230:fips202.c     ****             De = BCa^ROL(BCi, 1);
 1498              		.loc 1 230 16 view .LVU527
 1499 07fe 0193     		str	r3, [sp, #4]
 1500              	.LVL196:
 1501              		.loc 1 231 22 view .LVU528
 1502 0800 4BEAD77B 		orr	fp, fp, r7, lsr #31
 230:fips202.c     ****             De = BCa^ROL(BCi, 1);
 1503              		.loc 1 230 16 view .LVU529
 1504 0804 8AEA0E03 		eor	r3, r10, lr
 1505              		.loc 1 231 22 view .LVU530
 1506 0808 4FEA470A 		lsl	r10, r7, #1
 230:fips202.c     ****             De = BCa^ROL(BCi, 1);
 1507              		.loc 1 230 16 view .LVU531
 1508 080c 0293     		str	r3, [sp, #8]
 1509              	.LVL197:
 1510              		.loc 1 231 13 is_stmt 1 view .LVU532
 1511              		.loc 1 231 22 is_stmt 0 view .LVU533
 1512 080e 4AEADC7A 		orr	r10, r10, ip, lsr #31
 1513              		.loc 1 231 16 view .LVU534
 1514 0812 8BEA0203 		eor	r3, fp, r2
 1515              	.LVL198:
 1516              		.loc 1 231 16 view .LVU535
 1517 0816 0393     		str	r3, [sp, #12]
 1518              	.LVL199:
 1519              		.loc 1 231 16 view .LVU536
 1520 0818 8AEA0603 		eor	r3, r10, r6
 232:fips202.c     ****             Di = BCe^ROL(BCo, 1);
 1521              		.loc 1 232 22 view .LVU537
 1522 081c 4FEA440A 		lsl	r10, r4, #1
 1523 0820 4AEAD57A 		orr	r10, r10, r5, lsr #31
 231:fips202.c     ****             De = BCa^ROL(BCi, 1);
 1524              		.loc 1 231 16 view .LVU538
 1525 0824 0493     		str	r3, [sp, #16]
 1526              	.LVL200:
 1527              		.loc 1 232 13 is_stmt 1 view .LVU539
 1528              		.loc 1 232 16 is_stmt 0 view .LVU540
 1529 0826 8AEA0803 		eor	r3, r10, r8
 1530              	.LVL201:
 233:fips202.c     ****             Do = BCi^ROL(BCu, 1);
 1531              		.loc 1 233 22 view .LVU541
 1532 082a 4FEA4E08 		lsl	r8, lr, #1
 1533              	.LVL202:
 1534              		.loc 1 233 22 view .LVU542
 1535 082e 48EAD178 		orr	r8, r8, r1, lsr #31
 1536 0832 4900     		lsls	r1, r1, #1
 1537              	.LVL203:
 1538              		.loc 1 233 22 view .LVU543
 1539 0834 41EADE71 		orr	r1, r1, lr, lsr #31
 232:fips202.c     ****             Di = BCe^ROL(BCo, 1);
 1540              		.loc 1 232 16 view .LVU544
 1541 0838 0593     		str	r3, [sp, #20]
 1542              		.loc 1 233 16 view .LVU545
 1543 083a 81EA0C03 		eor	r3, r1, ip
 234:fips202.c     ****             Du = BCo^ROL(BCa, 1);
 1544              		.loc 1 234 22 view .LVU546
 1545 083e 7100     		lsls	r1, r6, #1
 1546 0840 41EAD271 		orr	r1, r1, r2, lsr #31
 1547 0844 5200     		lsls	r2, r2, #1
 1548              	.LVL204:
 233:fips202.c     ****             Do = BCi^ROL(BCu, 1);
 1549              		.loc 1 233 16 view .LVU547
 1550 0846 0693     		str	r3, [sp, #24]
 1551              	.LVL205:
 1552              		.loc 1 234 22 view .LVU548
 1553 0848 42EAD672 		orr	r2, r2, r6, lsr #31
 233:fips202.c     ****             Do = BCi^ROL(BCu, 1);
 1554              		.loc 1 233 16 view .LVU549
 1555 084c 88EA0703 		eor	r3, r8, r7
 1556 0850 0793     		str	r3, [sp, #28]
 1557              		.loc 1 234 16 view .LVU550
 1558 0852 82EA0503 		eor	r3, r2, r5
 1559 0856 0893     		str	r3, [sp, #32]
 1560              	.LVL206:
 1561              		.loc 1 234 16 view .LVU551
 1562 0858 81EA0403 		eor	r3, r1, r4
 235:fips202.c     **** 
 236:fips202.c     ****             Eba ^= Da;
 1563              		.loc 1 236 17 view .LVU552
 1564 085c 019A     		ldr	r2, [sp, #4]
 234:fips202.c     ****             Du = BCo^ROL(BCa, 1);
 1565              		.loc 1 234 16 view .LVU553
 1566 085e 0993     		str	r3, [sp, #36]
 232:fips202.c     ****             Do = BCi^ROL(BCu, 1);
 1567              		.loc 1 232 22 view .LVU554
 1568 0860 4FEA450B 		lsl	fp, r5, #1
 1569              		.loc 1 236 17 view .LVU555
 1570 0864 0A9B     		ldr	r3, [sp, #40]
 237:fips202.c     ****             BCa = Eba;
 238:fips202.c     ****             Ege ^= De;
 239:fips202.c     ****             BCe = ROL(Ege, 44);
 240:fips202.c     ****             Eki ^= Di;
 241:fips202.c     ****             BCi = ROL(Eki, 43);
 242:fips202.c     ****             Emo ^= Do;
 1571              		.loc 1 242 17 view .LVU556
 1572 0866 079E     		ldr	r6, [sp, #28]
 1573              	.LVL207:
 243:fips202.c     ****             BCo = ROL(Emo, 21);
 244:fips202.c     ****             Esu ^= Du;
 1574              		.loc 1 244 17 view .LVU557
 1575 0868 099F     		ldr	r7, [sp, #36]
 1576              	.LVL208:
 232:fips202.c     ****             Do = BCi^ROL(BCu, 1);
 1577              		.loc 1 232 22 view .LVU558
 1578 086a 4BEAD47B 		orr	fp, fp, r4, lsr #31
 232:fips202.c     ****             Do = BCi^ROL(BCu, 1);
 1579              		.loc 1 232 16 view .LVU559
 1580 086e 8BEA090B 		eor	fp, fp, r9
 1581              	.LVL209:
 233:fips202.c     ****             Du = BCo^ROL(BCa, 1);
 1582              		.loc 1 233 13 is_stmt 1 view .LVU560
 234:fips202.c     **** 
 1583              		.loc 1 234 13 view .LVU561
 236:fips202.c     ****             BCa = Eba;
 1584              		.loc 1 236 13 view .LVU562
 236:fips202.c     ****             BCa = Eba;
 1585              		.loc 1 236 17 is_stmt 0 view .LVU563
 1586 0872 83EA0209 		eor	r9, r3, r2
 1587              	.LVL210:
 236:fips202.c     ****             BCa = Eba;
 1588              		.loc 1 236 17 view .LVU564
 1589 0876 0B9B     		ldr	r3, [sp, #44]
 1590 0878 029A     		ldr	r2, [sp, #8]
 240:fips202.c     ****             BCi = ROL(Eki, 43);
 1591              		.loc 1 240 17 view .LVU565
 1592 087a 059C     		ldr	r4, [sp, #20]
 1593              	.LVL211:
 236:fips202.c     ****             BCa = Eba;
 1594              		.loc 1 236 17 view .LVU566
 1595 087c 83EA020A 		eor	r10, r3, r2
 1596              	.LVL212:
 237:fips202.c     ****             Ege ^= De;
 1597              		.loc 1 237 13 is_stmt 1 view .LVU567
 238:fips202.c     ****             BCe = ROL(Ege, 44);
 1598              		.loc 1 238 13 view .LVU568
 239:fips202.c     ****             Eki ^= Di;
 1599              		.loc 1 239 13 view .LVU569
 238:fips202.c     ****             BCe = ROL(Ege, 44);
 1600              		.loc 1 238 17 is_stmt 0 view .LVU570
 1601 0880 109B     		ldr	r3, [sp, #64]
 1602 0882 039A     		ldr	r2, [sp, #12]
 1603 0884 83EA0201 		eor	r1, r3, r2
 1604 0888 119B     		ldr	r3, [sp, #68]
 1605 088a 049A     		ldr	r2, [sp, #16]
 239:fips202.c     ****             Eki ^= Di;
 1606              		.loc 1 239 17 view .LVU571
 1607 088c 0D0D     		lsrs	r5, r1, #20
 1608              	.LVL213:
 238:fips202.c     ****             BCe = ROL(Ege, 44);
 1609              		.loc 1 238 17 view .LVU572
 1610 088e 5A40     		eors	r2, r2, r3
 240:fips202.c     ****             BCi = ROL(Eki, 43);
 1611              		.loc 1 240 17 view .LVU573
 1612 0890 0C9B     		ldr	r3, [sp, #48]
 239:fips202.c     ****             Eki ^= Di;
 1613              		.loc 1 239 17 view .LVU574
 1614 0892 45EA0235 		orr	r5, r5, r2, lsl #12
 1615 0896 120D     		lsrs	r2, r2, #20
 1616 0898 42EA0132 		orr	r2, r2, r1, lsl #12
 1617              	.LVL214:
 240:fips202.c     ****             BCi = ROL(Eki, 43);
 1618              		.loc 1 240 13 is_stmt 1 view .LVU575
 241:fips202.c     ****             Emo ^= Do;
 1619              		.loc 1 241 13 view .LVU576
 240:fips202.c     ****             BCi = ROL(Eki, 43);
 1620              		.loc 1 240 17 is_stmt 0 view .LVU577
 1621 089c 83EA0B01 		eor	r1, r3, fp
 1622 08a0 0D9B     		ldr	r3, [sp, #52]
 241:fips202.c     ****             Emo ^= Do;
 1623              		.loc 1 241 17 view .LVU578
 1624 08a2 4FEA5158 		lsr	r8, r1, #21
 240:fips202.c     ****             BCi = ROL(Eki, 43);
 1625              		.loc 1 240 17 view .LVU579
 1626 08a6 5C40     		eors	r4, r4, r3
 241:fips202.c     ****             Emo ^= Do;
 1627              		.loc 1 241 17 view .LVU580
 1628 08a8 48EAC428 		orr	r8, r8, r4, lsl #11
 1629 08ac 640D     		lsrs	r4, r4, #21
 1630 08ae 44EAC124 		orr	r4, r4, r1, lsl #11
 1631              	.LVL215:
 242:fips202.c     ****             BCo = ROL(Emo, 21);
 1632              		.loc 1 242 13 is_stmt 1 view .LVU581
 243:fips202.c     ****             Esu ^= Du;
 1633              		.loc 1 243 13 view .LVU582
 242:fips202.c     ****             BCo = ROL(Emo, 21);
 1634              		.loc 1 242 17 is_stmt 0 view .LVU583
 1635 08b2 129B     		ldr	r3, [sp, #72]
 1636 08b4 0699     		ldr	r1, [sp, #24]
 1637 08b6 5940     		eors	r1, r1, r3
 1638 08b8 139B     		ldr	r3, [sp, #76]
 1639 08ba 5E40     		eors	r6, r6, r3
 1640              	.LVL216:
 243:fips202.c     ****             Esu ^= Du;
 1641              		.loc 1 243 17 view .LVU584
 1642 08bc 4FEA465E 		lsl	lr, r6, #21
 1643              	.LVL217:
 243:fips202.c     ****             Esu ^= Du;
 1644              		.loc 1 243 17 view .LVU585
 1645 08c0 4EEAD12E 		orr	lr, lr, r1, lsr #11
 1646 08c4 4905     		lsls	r1, r1, #21
 1647 08c6 41EAD621 		orr	r1, r1, r6, lsr #11
 1648              	.LVL218:
 1649              		.loc 1 244 13 is_stmt 1 view .LVU586
 245:fips202.c     ****             BCu = ROL(Esu, 14);
 1650              		.loc 1 245 13 view .LVU587
 244:fips202.c     ****             BCu = ROL(Esu, 14);
 1651              		.loc 1 244 17 is_stmt 0 view .LVU588
 1652 08ca 089B     		ldr	r3, [sp, #32]
 1653 08cc 0E9E     		ldr	r6, [sp, #56]
 1654 08ce 5E40     		eors	r6, r6, r3
 1655 08d0 3346     		mov	r3, r6
 1656 08d2 0F9E     		ldr	r6, [sp, #60]
 1657 08d4 7E40     		eors	r6, r6, r7
 1658              		.loc 1 245 17 view .LVU589
 1659 08d6 4FEA863C 		lsl	ip, r6, #14
 1660 08da 4CEA934C 		orr	ip, ip, r3, lsr #18
 1661 08de 9B03     		lsls	r3, r3, #14
 1662 08e0 43EA9643 		orr	r3, r3, r6, lsr #18
 1663              	.LVL219:
 246:fips202.c     ****             Aba =   BCa ^((~BCe)&  BCi );
 1664              		.loc 1 246 13 is_stmt 1 view .LVU590
 247:fips202.c     ****             Aba ^= (uint64_t)KeccakF_RoundConstants[round+1];
 1665              		.loc 1 247 13 view .LVU591
 1666              		.loc 1 247 17 is_stmt 0 view .LVU592
 1667 08e4 009E     		ldr	r6, [sp]
 1668 08e6 D6E90276 		ldrd	r7, r6, [r6, #8]
 1669              	.LVL220:
 1670              		.loc 1 247 17 view .LVU593
 1671 08ea 8AEA0606 		eor	r6, r10, r6
 1672 08ee 0B96     		str	r6, [sp, #44]
 1673 08f0 89EA0707 		eor	r7, r9, r7
 1674 08f4 28EA0506 		bic	r6, r8, r5
 1675 08f8 7E40     		eors	r6, r6, r7
 1676 08fa 0B9F     		ldr	r7, [sp, #44]
 1677 08fc 0A96     		str	r6, [sp, #40]
 1678 08fe 24EA0206 		bic	r6, r4, r2
 1679 0902 7740     		eors	r7, r7, r6
 248:fips202.c     ****             Abe =   BCe ^((~BCi)&  BCo );
 1680              		.loc 1 248 33 view .LVU594
 1681 0904 2EEA0406 		bic	r6, lr, r4
 1682              		.loc 1 248 17 view .LVU595
 1683 0908 5640     		eors	r6, r6, r2
 247:fips202.c     ****             Aba ^= (uint64_t)KeccakF_RoundConstants[round+1];
 1684              		.loc 1 247 17 view .LVU596
 1685 090a 0B97     		str	r7, [sp, #44]
 1686              	.LVL221:
 1687              		.loc 1 248 13 is_stmt 1 view .LVU597
 1688              		.loc 1 248 33 is_stmt 0 view .LVU598
 1689 090c 21EA0807 		bic	r7, r1, r8
 1690              	.LVL222:
 1691              		.loc 1 248 17 view .LVU599
 1692 0910 6F40     		eors	r7, r7, r5
 1693 0912 0D96     		str	r6, [sp, #52]
 1694              	.LVL223:
 249:fips202.c     ****             Abi =   BCi ^((~BCo)&  BCu );
 1695              		.loc 1 249 13 is_stmt 1 view .LVU600
 250:fips202.c     ****             Abo =   BCo ^((~BCu)&  BCa );
 251:fips202.c     ****             Abu =   BCu ^((~BCa)&  BCe );
 1696              		.loc 1 251 33 is_stmt 0 view .LVU601
 1697 0914 25EA0905 		bic	r5, r5, r9
 1698              	.LVL224:
 249:fips202.c     ****             Abi =   BCi ^((~BCo)&  BCu );
 1699              		.loc 1 249 33 view .LVU602
 1700 0918 2CEA0E06 		bic	r6, ip, lr
 1701              	.LVL225:
 249:fips202.c     ****             Abi =   BCi ^((~BCo)&  BCu );
 1702              		.loc 1 249 17 view .LVU603
 1703 091c 7440     		eors	r4, r4, r6
 1704              	.LVL226:
 1705              		.loc 1 251 33 view .LVU604
 1706 091e 22EA0A02 		bic	r2, r2, r10
 1707              	.LVL227:
 250:fips202.c     ****             Abo =   BCo ^((~BCu)&  BCa );
 1708              		.loc 1 250 33 view .LVU605
 1709 0922 29EA0306 		bic	r6, r9, r3
 248:fips202.c     ****             Abi =   BCi ^((~BCo)&  BCu );
 1710              		.loc 1 248 17 view .LVU606
 1711 0926 0C97     		str	r7, [sp, #48]
 1712              	.LVL228:
 249:fips202.c     ****             Abi =   BCi ^((~BCo)&  BCu );
 1713              		.loc 1 249 33 view .LVU607
 1714 0928 23EA0107 		bic	r7, r3, r1
 1715              		.loc 1 251 17 view .LVU608
 1716 092c 6B40     		eors	r3, r3, r5
 1717              	.LVL229:
 1718              		.loc 1 251 17 view .LVU609
 1719 092e 1293     		str	r3, [sp, #72]
 1720              	.LVL230:
 1721              		.loc 1 251 17 view .LVU610
 1722 0930 82EA0C03 		eor	r3, r2, ip
 250:fips202.c     ****             Abo =   BCo ^((~BCu)&  BCa );
 1723              		.loc 1 250 17 view .LVU611
 1724 0934 7140     		eors	r1, r1, r6
 1725              	.LVL231:
 252:fips202.c     **** 
 253:fips202.c     ****             Ebo ^= Do;
 1726              		.loc 1 253 17 view .LVU612
 1727 0936 069A     		ldr	r2, [sp, #24]
 249:fips202.c     ****             Abo =   BCo ^((~BCu)&  BCa );
 1728              		.loc 1 249 17 view .LVU613
 1729 0938 0F94     		str	r4, [sp, #60]
 1730              	.LVL232:
 250:fips202.c     ****             Abu =   BCu ^((~BCa)&  BCe );
 1731              		.loc 1 250 13 is_stmt 1 view .LVU614
 251:fips202.c     **** 
 1732              		.loc 1 251 17 is_stmt 0 view .LVU615
 1733 093a 1393     		str	r3, [sp, #76]
 250:fips202.c     ****             Abu =   BCu ^((~BCa)&  BCe );
 1734              		.loc 1 250 33 view .LVU616
 1735 093c 2AEA0C04 		bic	r4, r10, ip
 1736              	.LVL233:
 1737              		.loc 1 253 17 view .LVU617
 1738 0940 169B     		ldr	r3, [sp, #88]
 250:fips202.c     ****             Abu =   BCu ^((~BCa)&  BCe );
 1739              		.loc 1 250 17 view .LVU618
 1740 0942 1091     		str	r1, [sp, #64]
 1741              	.LVL234:
 250:fips202.c     ****             Abu =   BCu ^((~BCa)&  BCe );
 1742              		.loc 1 250 17 view .LVU619
 1743 0944 84EA0E01 		eor	r1, r4, lr
 1744 0948 1191     		str	r1, [sp, #68]
 1745              	.LVL235:
 251:fips202.c     **** 
 1746              		.loc 1 251 13 is_stmt 1 view .LVU620
 1747              		.loc 1 253 13 view .LVU621
 254:fips202.c     ****             BCa = ROL(Ebo, 28);
 1748              		.loc 1 254 13 view .LVU622
 253:fips202.c     ****             BCa = ROL(Ebo, 28);
 1749              		.loc 1 253 17 is_stmt 0 view .LVU623
 1750 094a 83EA0201 		eor	r1, r3, r2
 1751              	.LVL236:
 253:fips202.c     ****             BCa = ROL(Ebo, 28);
 1752              		.loc 1 253 17 view .LVU624
 1753 094e 079A     		ldr	r2, [sp, #28]
 1754 0950 179B     		ldr	r3, [sp, #92]
 255:fips202.c     ****             Egu ^= Du;
 1755              		.loc 1 255 17 view .LVU625
 1756 0952 099C     		ldr	r4, [sp, #36]
 253:fips202.c     ****             BCa = ROL(Ebo, 28);
 1757              		.loc 1 253 17 view .LVU626
 1758 0954 5340     		eors	r3, r3, r2
 254:fips202.c     ****             BCa = ROL(Ebo, 28);
 1759              		.loc 1 254 17 view .LVU627
 1760 0956 4FEA037C 		lsl	ip, r3, #28
 1761 095a 4CEA111C 		orr	ip, ip, r1, lsr #4
 1762 095e 0907     		lsls	r1, r1, #28
 1763 0960 41EA1311 		orr	r1, r1, r3, lsr #4
 1764              	.LVL237:
 1765              		.loc 1 255 13 is_stmt 1 view .LVU628
 256:fips202.c     ****             BCe = ROL(Egu, 20);
 1766              		.loc 1 256 13 view .LVU629
 255:fips202.c     ****             Egu ^= Du;
 1767              		.loc 1 255 17 is_stmt 0 view .LVU630
 1768 0964 089A     		ldr	r2, [sp, #32]
 1769 0966 1C9B     		ldr	r3, [sp, #112]
 1770 0968 5340     		eors	r3, r3, r2
 1771 096a 1D9A     		ldr	r2, [sp, #116]
 1772 096c 6240     		eors	r2, r2, r4
 1773              		.loc 1 256 17 view .LVU631
 1774 096e 1605     		lsls	r6, r2, #20
 1775 0970 46EA1336 		orr	r6, r6, r3, lsr #12
 1776 0974 1B05     		lsls	r3, r3, #20
 1777 0976 43EA1233 		orr	r3, r3, r2, lsr #12
 1778              	.LVL238:
 257:fips202.c     ****             Eka ^= Da;
 1779              		.loc 1 257 13 is_stmt 1 view .LVU632
 258:fips202.c     ****             BCi = ROL(Eka, 3);
 1780              		.loc 1 258 13 view .LVU633
 257:fips202.c     ****             Eka ^= Da;
 1781              		.loc 1 257 17 is_stmt 0 view .LVU634
 1782 097a 019C     		ldr	r4, [sp, #4]
 1783 097c 189A     		ldr	r2, [sp, #96]
 1784 097e 82EA0405 		eor	r5, r2, r4
 1785 0982 029C     		ldr	r4, [sp, #8]
 1786 0984 199A     		ldr	r2, [sp, #100]
 1787 0986 6240     		eors	r2, r2, r4
 249:fips202.c     ****             Abo =   BCo ^((~BCu)&  BCa );
 1788              		.loc 1 249 17 view .LVU635
 1789 0988 87EA0807 		eor	r7, r7, r8
 1790              		.loc 1 258 17 view .LVU636
 1791 098c 4FEAC208 		lsl	r8, r2, #3
 1792              		.loc 1 258 17 view .LVU637
 1793 0990 48EA5578 		orr	r8, r8, r5, lsr #29
 1794 0994 ED00     		lsls	r5, r5, #3
 1795 0996 45EA5275 		orr	r5, r5, r2, lsr #29
 1796              	.LVL239:
 259:fips202.c     ****             Eme ^= De;
 1797              		.loc 1 259 13 is_stmt 1 view .LVU638
 260:fips202.c     ****             BCo = ROL(Eme, 45);
 1798              		.loc 1 260 13 view .LVU639
 259:fips202.c     ****             Eme ^= De;
 1799              		.loc 1 259 17 is_stmt 0 view .LVU640
 1800 099a 039C     		ldr	r4, [sp, #12]
 1801 099c 149A     		ldr	r2, [sp, #80]
 249:fips202.c     ****             Abo =   BCo ^((~BCu)&  BCa );
 1802              		.loc 1 249 17 view .LVU641
 1803 099e 0E97     		str	r7, [sp, #56]
 1804              	.LVL240:
 259:fips202.c     ****             Eme ^= De;
 1805              		.loc 1 259 17 view .LVU642
 1806 09a0 6240     		eors	r2, r2, r4
 1807 09a2 049F     		ldr	r7, [sp, #16]
 1808 09a4 159C     		ldr	r4, [sp, #84]
 1809              		.loc 1 260 17 view .LVU643
 1810 09a6 4FEAD24E 		lsr	lr, r2, #19
 259:fips202.c     ****             Eme ^= De;
 1811              		.loc 1 259 17 view .LVU644
 1812 09aa 7C40     		eors	r4, r4, r7
 1813              		.loc 1 260 17 view .LVU645
 1814 09ac 4EEA443E 		orr	lr, lr, r4, lsl #13
 1815 09b0 E40C     		lsrs	r4, r4, #19
 1816 09b2 44EA4234 		orr	r4, r4, r2, lsl #13
 1817              	.LVL241:
 261:fips202.c     ****             Esi ^= Di;
 1818              		.loc 1 261 13 is_stmt 1 view .LVU646
 262:fips202.c     ****             BCu = ROL(Esi, 61);
 1819              		.loc 1 262 13 view .LVU647
 261:fips202.c     ****             Esi ^= Di;
 1820              		.loc 1 261 17 is_stmt 0 view .LVU648
 1821 09b6 1A9A     		ldr	r2, [sp, #104]
 1822 09b8 82EA0B09 		eor	r9, r2, fp
 1823              	.LVL242:
 261:fips202.c     ****             Esi ^= Di;
 1824              		.loc 1 261 17 view .LVU649
 1825 09bc 1B9A     		ldr	r2, [sp, #108]
 1826 09be 059F     		ldr	r7, [sp, #20]
 1827 09c0 7A40     		eors	r2, r2, r7
 1828              		.loc 1 262 17 view .LVU650
 1829 09c2 4FEAD907 		lsr	r7, r9, #3
 1830 09c6 47EA4277 		orr	r7, r7, r2, lsl #29
 263:fips202.c     ****             Aga =   BCa ^((~BCe)&  BCi );
 1831              		.loc 1 263 33 view .LVU651
 1832 09ca 25EA030A 		bic	r10, r5, r3
 262:fips202.c     ****             BCu = ROL(Esi, 61);
 1833              		.loc 1 262 17 view .LVU652
 1834 09ce D208     		lsrs	r2, r2, #3
 1835 09d0 42EA4972 		orr	r2, r2, r9, lsl #29
 1836              	.LVL243:
 1837              		.loc 1 263 13 is_stmt 1 view .LVU653
 1838              		.loc 1 263 17 is_stmt 0 view .LVU654
 1839 09d4 8AEA010A 		eor	r10, r10, r1
 1840              		.loc 1 263 33 view .LVU655
 1841 09d8 28EA0609 		bic	r9, r8, r6
 1842              		.loc 1 263 17 view .LVU656
 1843 09dc 89EA0C09 		eor	r9, r9, ip
 1844 09e0 CDF850A0 		str	r10, [sp, #80]
 1845              	.LVL244:
 264:fips202.c     ****             Age =   BCe ^((~BCi)&  BCo );
 1846              		.loc 1 264 33 view .LVU657
 1847 09e4 2EEA050A 		bic	r10, lr, r5
 1848              		.loc 1 264 17 view .LVU658
 1849 09e8 8AEA030A 		eor	r10, r10, r3
 263:fips202.c     ****             Aga =   BCa ^((~BCe)&  BCi );
 1850              		.loc 1 263 17 view .LVU659
 1851 09ec CDF85490 		str	r9, [sp, #84]
 1852              	.LVL245:
 1853              		.loc 1 264 13 is_stmt 1 view .LVU660
 1854              		.loc 1 264 33 is_stmt 0 view .LVU661
 1855 09f0 24EA0809 		bic	r9, r4, r8
 1856              	.LVL246:
 1857              		.loc 1 264 17 view .LVU662
 1858 09f4 89EA0609 		eor	r9, r9, r6
 1859 09f8 CDF858A0 		str	r10, [sp, #88]
 1860              	.LVL247:
 265:fips202.c     ****             Agi =   BCi ^((~BCo)&  BCu );
 266:fips202.c     ****             Ago =   BCo ^((~BCu)&  BCa );
 267:fips202.c     ****             Agu =   BCu ^((~BCa)&  BCe );
 1861              		.loc 1 267 33 view .LVU663
 1862 09fc 23EA0103 		bic	r3, r3, r1
 1863              	.LVL248:
 265:fips202.c     ****             Agi =   BCi ^((~BCo)&  BCu );
 1864              		.loc 1 265 33 view .LVU664
 1865 0a00 27EA0E0A 		bic	r10, r7, lr
 265:fips202.c     ****             Agi =   BCi ^((~BCo)&  BCu );
 1866              		.loc 1 265 17 view .LVU665
 1867 0a04 8AEA0505 		eor	r5, r10, r5
 1868              	.LVL249:
 1869              		.loc 1 267 33 view .LVU666
 1870 0a08 26EA0C06 		bic	r6, r6, ip
 1871              	.LVL250:
 1872              		.loc 1 267 17 view .LVU667
 1873 0a0c 7B40     		eors	r3, r3, r7
 264:fips202.c     ****             Age =   BCe ^((~BCi)&  BCo );
 1874              		.loc 1 264 17 view .LVU668
 1875 0a0e CDF85C90 		str	r9, [sp, #92]
 1876              	.LVL251:
 265:fips202.c     ****             Agi =   BCi ^((~BCo)&  BCu );
 1877              		.loc 1 265 13 is_stmt 1 view .LVU669
 265:fips202.c     ****             Agi =   BCi ^((~BCo)&  BCu );
 1878              		.loc 1 265 33 is_stmt 0 view .LVU670
 1879 0a12 22EA0409 		bic	r9, r2, r4
 1880              	.LVL252:
 265:fips202.c     ****             Agi =   BCi ^((~BCo)&  BCu );
 1881              		.loc 1 265 17 view .LVU671
 1882 0a16 1895     		str	r5, [sp, #96]
 1883              	.LVL253:
 1884              		.loc 1 267 17 view .LVU672
 1885 0a18 1C93     		str	r3, [sp, #112]
 1886              	.LVL254:
 265:fips202.c     ****             Agi =   BCi ^((~BCo)&  BCu );
 1887              		.loc 1 265 17 view .LVU673
 1888 0a1a 89EA0805 		eor	r5, r9, r8
 1889              		.loc 1 267 17 view .LVU674
 1890 0a1e 86EA0203 		eor	r3, r6, r2
 265:fips202.c     ****             Agi =   BCi ^((~BCo)&  BCu );
 1891              		.loc 1 265 17 view .LVU675
 1892 0a22 1995     		str	r5, [sp, #100]
 1893              	.LVL255:
 266:fips202.c     ****             Agu =   BCu ^((~BCa)&  BCe );
 1894              		.loc 1 266 13 is_stmt 1 view .LVU676
 1895              		.loc 1 267 17 is_stmt 0 view .LVU677
 1896 0a24 1D93     		str	r3, [sp, #116]
 266:fips202.c     ****             Agu =   BCu ^((~BCa)&  BCe );
 1897              		.loc 1 266 33 view .LVU678
 1898 0a26 2CEA0205 		bic	r5, ip, r2
 1899              	.LVL256:
 268:fips202.c     **** 
 269:fips202.c     ****             Ebe ^= De;
 1900              		.loc 1 269 17 view .LVU679
 1901 0a2a 229B     		ldr	r3, [sp, #136]
 1902 0a2c 039A     		ldr	r2, [sp, #12]
 1903              	.LVL257:
 270:fips202.c     ****             BCa = ROL(Ebe, 1);
 271:fips202.c     ****             Egi ^= Di;
 272:fips202.c     ****             BCe = ROL(Egi, 6);
 273:fips202.c     ****             Eko ^= Do;
 274:fips202.c     ****             BCi = ROL(Eko, 25);
 275:fips202.c     ****             Emu ^= Du;
 276:fips202.c     ****             BCo = ROL(Emu, 8);
 277:fips202.c     ****             Esa ^= Da;
 1904              		.loc 1 277 17 view .LVU680
 1905 0a2e DDF80890 		ldr	r9, [sp, #8]
 266:fips202.c     ****             Agu =   BCu ^((~BCa)&  BCe );
 1906              		.loc 1 266 33 view .LVU681
 1907 0a32 21EA0708 		bic	r8, r1, r7
 269:fips202.c     ****             BCa = ROL(Ebe, 1);
 1908              		.loc 1 269 17 view .LVU682
 1909 0a36 83EA0201 		eor	r1, r3, r2
 1910              	.LVL258:
 269:fips202.c     ****             BCa = ROL(Ebe, 1);
 1911              		.loc 1 269 17 view .LVU683
 1912 0a3a 049A     		ldr	r2, [sp, #16]
 1913 0a3c 239B     		ldr	r3, [sp, #140]
 275:fips202.c     ****             BCo = ROL(Emu, 8);
 1914              		.loc 1 275 17 view .LVU684
 1915 0a3e 099F     		ldr	r7, [sp, #36]
 1916              	.LVL259:
 269:fips202.c     ****             BCa = ROL(Ebe, 1);
 1917              		.loc 1 269 17 view .LVU685
 1918 0a40 5340     		eors	r3, r3, r2
 266:fips202.c     ****             Agu =   BCu ^((~BCa)&  BCe );
 1919              		.loc 1 266 17 view .LVU686
 1920 0a42 6C40     		eors	r4, r4, r5
 1921              	.LVL260:
 270:fips202.c     ****             Egi ^= Di;
 1922              		.loc 1 270 17 view .LVU687
 1923 0a44 4FEA430C 		lsl	ip, r3, #1
 1924 0a48 4CEAD17C 		orr	ip, ip, r1, lsr #31
 271:fips202.c     ****             BCe = ROL(Egi, 6);
 1925              		.loc 1 271 17 view .LVU688
 1926 0a4c 1F9A     		ldr	r2, [sp, #124]
 266:fips202.c     ****             Agu =   BCu ^((~BCa)&  BCe );
 1927              		.loc 1 266 17 view .LVU689
 1928 0a4e 1B94     		str	r4, [sp, #108]
 1929              	.LVL261:
 267:fips202.c     **** 
 1930              		.loc 1 267 13 is_stmt 1 view .LVU690
 269:fips202.c     ****             BCa = ROL(Ebe, 1);
 1931              		.loc 1 269 13 view .LVU691
 270:fips202.c     ****             Egi ^= Di;
 1932              		.loc 1 270 13 view .LVU692
 270:fips202.c     ****             Egi ^= Di;
 1933              		.loc 1 270 17 is_stmt 0 view .LVU693
 1934 0a50 4900     		lsls	r1, r1, #1
 271:fips202.c     ****             BCe = ROL(Egi, 6);
 1935              		.loc 1 271 17 view .LVU694
 1936 0a52 059C     		ldr	r4, [sp, #20]
 1937              	.LVL262:
 270:fips202.c     ****             Egi ^= Di;
 1938              		.loc 1 270 17 view .LVU695
 1939 0a54 41EAD371 		orr	r1, r1, r3, lsr #31
 1940              	.LVL263:
 271:fips202.c     ****             BCe = ROL(Egi, 6);
 1941              		.loc 1 271 13 is_stmt 1 view .LVU696
 272:fips202.c     ****             Eko ^= Do;
 1942              		.loc 1 272 13 view .LVU697
 271:fips202.c     ****             BCe = ROL(Egi, 6);
 1943              		.loc 1 271 17 is_stmt 0 view .LVU698
 1944 0a58 1E9B     		ldr	r3, [sp, #120]
 1945 0a5a 6240     		eors	r2, r2, r4
 1946 0a5c 83EA0B03 		eor	r3, r3, fp
 272:fips202.c     ****             Eko ^= Do;
 1947              		.loc 1 272 17 view .LVU699
 1948 0a60 9601     		lsls	r6, r2, #6
 1949 0a62 46EA9366 		orr	r6, r6, r3, lsr #26
 1950 0a66 9B01     		lsls	r3, r3, #6
 1951 0a68 43EA9263 		orr	r3, r3, r2, lsr #26
 1952              	.LVL264:
 273:fips202.c     ****             BCi = ROL(Eko, 25);
 1953              		.loc 1 273 13 is_stmt 1 view .LVU700
 274:fips202.c     ****             Emu ^= Du;
 1954              		.loc 1 274 13 view .LVU701
 273:fips202.c     ****             BCi = ROL(Eko, 25);
 1955              		.loc 1 273 17 is_stmt 0 view .LVU702
 1956 0a6c 069C     		ldr	r4, [sp, #24]
 1957 0a6e 249A     		ldr	r2, [sp, #144]
 1958 0a70 82EA0405 		eor	r5, r2, r4
 1959 0a74 079C     		ldr	r4, [sp, #28]
 1960 0a76 259A     		ldr	r2, [sp, #148]
 1961 0a78 6240     		eors	r2, r2, r4
 266:fips202.c     ****             Agu =   BCu ^((~BCa)&  BCe );
 1962              		.loc 1 266 17 view .LVU703
 1963 0a7a 88EA0E0E 		eor	lr, r8, lr
 274:fips202.c     ****             Emu ^= Du;
 1964              		.loc 1 274 17 view .LVU704
 1965 0a7e 4FEA4268 		lsl	r8, r2, #25
 1966 0a82 48EAD518 		orr	r8, r8, r5, lsr #7
 1967 0a86 6D06     		lsls	r5, r5, #25
 1968 0a88 45EAD215 		orr	r5, r5, r2, lsr #7
 1969              	.LVL265:
 275:fips202.c     ****             BCo = ROL(Emu, 8);
 1970              		.loc 1 275 13 is_stmt 1 view .LVU705
 276:fips202.c     ****             Esa ^= Da;
 1971              		.loc 1 276 13 view .LVU706
 275:fips202.c     ****             BCo = ROL(Emu, 8);
 1972              		.loc 1 275 17 is_stmt 0 view .LVU707
 1973 0a8c 089C     		ldr	r4, [sp, #32]
 1974 0a8e 209A     		ldr	r2, [sp, #128]
 266:fips202.c     ****             Agu =   BCu ^((~BCa)&  BCe );
 1975              		.loc 1 266 17 view .LVU708
 1976 0a90 CDF868E0 		str	lr, [sp, #104]
 1977              	.LVL266:
 275:fips202.c     ****             BCo = ROL(Emu, 8);
 1978              		.loc 1 275 17 view .LVU709
 1979 0a94 5440     		eors	r4, r4, r2
 1980 0a96 219A     		ldr	r2, [sp, #132]
 1981 0a98 7A40     		eors	r2, r2, r7
 276:fips202.c     ****             Esa ^= Da;
 1982              		.loc 1 276 17 view .LVU710
 1983 0a9a 4FEA022E 		lsl	lr, r2, #8
 1984 0a9e 4EEA146E 		orr	lr, lr, r4, lsr #24
 1985 0aa2 2402     		lsls	r4, r4, #8
 1986 0aa4 44EA1264 		orr	r4, r4, r2, lsr #24
 1987              	.LVL267:
 1988              		.loc 1 277 13 is_stmt 1 view .LVU711
 278:fips202.c     ****             BCu = ROL(Esa, 18);
 1989              		.loc 1 278 13 view .LVU712
 277:fips202.c     ****             BCu = ROL(Esa, 18);
 1990              		.loc 1 277 17 is_stmt 0 view .LVU713
 1991 0aa8 019F     		ldr	r7, [sp, #4]
 1992 0aaa 269A     		ldr	r2, [sp, #152]
 1993 0aac 7A40     		eors	r2, r2, r7
 1994 0aae 279F     		ldr	r7, [sp, #156]
 1995 0ab0 87EA0909 		eor	r9, r7, r9
 1996              		.loc 1 278 17 view .LVU714
 1997 0ab4 4FEA8947 		lsl	r7, r9, #18
 1998 0ab8 47EA9237 		orr	r7, r7, r2, lsr #14
 279:fips202.c     ****             Aka =   BCa ^((~BCe)&  BCi );
 1999              		.loc 1 279 33 view .LVU715
 2000 0abc 25EA030A 		bic	r10, r5, r3
 278:fips202.c     ****             BCu = ROL(Esa, 18);
 2001              		.loc 1 278 17 view .LVU716
 2002 0ac0 9204     		lsls	r2, r2, #18
 2003 0ac2 42EA9932 		orr	r2, r2, r9, lsr #14
 2004              	.LVL268:
 2005              		.loc 1 279 13 is_stmt 1 view .LVU717
 2006              		.loc 1 279 17 is_stmt 0 view .LVU718
 2007 0ac6 8AEA010A 		eor	r10, r10, r1
 2008              		.loc 1 279 33 view .LVU719
 2009 0aca 28EA0609 		bic	r9, r8, r6
 2010              		.loc 1 279 17 view .LVU720
 2011 0ace 89EA0C09 		eor	r9, r9, ip
 2012 0ad2 CDF878A0 		str	r10, [sp, #120]
 2013              	.LVL269:
 280:fips202.c     ****             Ake =   BCe ^((~BCi)&  BCo );
 2014              		.loc 1 280 33 view .LVU721
 2015 0ad6 24EA050A 		bic	r10, r4, r5
 279:fips202.c     ****             Aka =   BCa ^((~BCe)&  BCi );
 2016              		.loc 1 279 17 view .LVU722
 2017 0ada CDF87C90 		str	r9, [sp, #124]
 2018              	.LVL270:
 2019              		.loc 1 280 13 is_stmt 1 view .LVU723
 2020              		.loc 1 280 17 is_stmt 0 view .LVU724
 2021 0ade 8AEA030A 		eor	r10, r10, r3
 2022              		.loc 1 280 33 view .LVU725
 2023 0ae2 2EEA0809 		bic	r9, lr, r8
 2024              	.LVL271:
 281:fips202.c     ****             Aki =   BCi ^((~BCo)&  BCu );
 282:fips202.c     ****             Ako =   BCo ^((~BCu)&  BCa );
 283:fips202.c     ****             Aku =   BCu ^((~BCa)&  BCe );
 2025              		.loc 1 283 33 view .LVU726
 2026 0ae6 23EA0103 		bic	r3, r3, r1
 2027              	.LVL272:
 280:fips202.c     ****             Ake =   BCe ^((~BCi)&  BCo );
 2028              		.loc 1 280 17 view .LVU727
 2029 0aea 89EA0609 		eor	r9, r9, r6
 2030              		.loc 1 283 17 view .LVU728
 2031 0aee 5340     		eors	r3, r3, r2
 2032              		.loc 1 283 33 view .LVU729
 2033 0af0 26EA0C06 		bic	r6, r6, ip
 280:fips202.c     ****             Ake =   BCe ^((~BCi)&  BCo );
 2034              		.loc 1 280 17 view .LVU730
 2035 0af4 CDF880A0 		str	r10, [sp, #128]
 2036              	.LVL273:
 281:fips202.c     ****             Aki =   BCi ^((~BCo)&  BCu );
 2037              		.loc 1 281 33 view .LVU731
 2038 0af8 22EA040A 		bic	r10, r2, r4
 281:fips202.c     ****             Aki =   BCi ^((~BCo)&  BCu );
 2039              		.loc 1 281 17 view .LVU732
 2040 0afc 8AEA0505 		eor	r5, r10, r5
 2041              	.LVL274:
 280:fips202.c     ****             Ake =   BCe ^((~BCi)&  BCo );
 2042              		.loc 1 280 17 view .LVU733
 2043 0b00 CDF88490 		str	r9, [sp, #132]
 2044              	.LVL275:
 281:fips202.c     ****             Aki =   BCi ^((~BCo)&  BCu );
 2045              		.loc 1 281 13 is_stmt 1 view .LVU734
 2046              		.loc 1 283 17 is_stmt 0 view .LVU735
 2047 0b04 2693     		str	r3, [sp, #152]
 2048              	.LVL276:
 281:fips202.c     ****             Aki =   BCi ^((~BCo)&  BCu );
 2049              		.loc 1 281 33 view .LVU736
 2050 0b06 27EA0E09 		bic	r9, r7, lr
 2051              	.LVL277:
 2052              		.loc 1 283 17 view .LVU737
 2053 0b0a 86EA0703 		eor	r3, r6, r7
 281:fips202.c     ****             Aki =   BCi ^((~BCo)&  BCu );
 2054              		.loc 1 281 17 view .LVU738
 2055 0b0e 2295     		str	r5, [sp, #136]
 2056              	.LVL278:
 2057              		.loc 1 283 17 view .LVU739
 2058 0b10 2793     		str	r3, [sp, #156]
 281:fips202.c     ****             Aki =   BCi ^((~BCo)&  BCu );
 2059              		.loc 1 281 17 view .LVU740
 2060 0b12 89EA0805 		eor	r5, r9, r8
 284:fips202.c     **** 
 285:fips202.c     ****             Ebu ^= Du;
 2061              		.loc 1 285 17 view .LVU741
 2062 0b16 2E9B     		ldr	r3, [sp, #184]
 281:fips202.c     ****             Aki =   BCi ^((~BCo)&  BCu );
 2063              		.loc 1 281 17 view .LVU742
 2064 0b18 2395     		str	r5, [sp, #140]
 2065              	.LVL279:
 282:fips202.c     ****             Aku =   BCu ^((~BCa)&  BCe );
 2066              		.loc 1 282 13 is_stmt 1 view .LVU743
 282:fips202.c     ****             Aku =   BCu ^((~BCa)&  BCe );
 2067              		.loc 1 282 33 is_stmt 0 view .LVU744
 2068 0b1a 21EA0208 		bic	r8, r1, r2
 2069              	.LVL280:
 2070              		.loc 1 285 17 view .LVU745
 2071 0b1e 089A     		ldr	r2, [sp, #32]
 2072              	.LVL281:
 2073              		.loc 1 285 17 view .LVU746
 2074 0b20 83EA0201 		eor	r1, r3, r2
 2075              	.LVL282:
 2076              		.loc 1 285 17 view .LVU747
 2077 0b24 099A     		ldr	r2, [sp, #36]
 2078 0b26 2F9B     		ldr	r3, [sp, #188]
 2079 0b28 5340     		eors	r3, r3, r2
 282:fips202.c     ****             Aku =   BCu ^((~BCa)&  BCe );
 2080              		.loc 1 282 33 view .LVU748
 2081 0b2a 2CEA0705 		bic	r5, ip, r7
 2082              	.LVL283:
 286:fips202.c     ****             BCa = ROL(Ebu, 27);
 2083              		.loc 1 286 17 view .LVU749
 2084 0b2e 4FEAC36C 		lsl	ip, r3, #27
 2085 0b32 4CEA511C 		orr	ip, ip, r1, lsr #5
 2086 0b36 C906     		lsls	r1, r1, #27
 2087 0b38 41EA5311 		orr	r1, r1, r3, lsr #5
 282:fips202.c     ****             Aku =   BCu ^((~BCa)&  BCe );
 2088              		.loc 1 282 17 view .LVU750
 2089 0b3c 88EA0404 		eor	r4, r8, r4
 2090              	.LVL284:
 287:fips202.c     ****             Ega ^= Da;
 2091              		.loc 1 287 17 view .LVU751
 2092 0b40 2A9B     		ldr	r3, [sp, #168]
 2093 0b42 019A     		ldr	r2, [sp, #4]
 282:fips202.c     ****             Aku =   BCu ^((~BCa)&  BCe );
 2094              		.loc 1 282 17 view .LVU752
 2095 0b44 2494     		str	r4, [sp, #144]
 2096              	.LVL285:
 282:fips202.c     ****             Aku =   BCu ^((~BCa)&  BCe );
 2097              		.loc 1 282 17 view .LVU753
 2098 0b46 85EA0E04 		eor	r4, r5, lr
 2099              		.loc 1 287 17 view .LVU754
 2100 0b4a 5A40     		eors	r2, r2, r3
 282:fips202.c     ****             Aku =   BCu ^((~BCa)&  BCe );
 2101              		.loc 1 282 17 view .LVU755
 2102 0b4c 2594     		str	r4, [sp, #148]
 2103              	.LVL286:
 283:fips202.c     **** 
 2104              		.loc 1 283 13 is_stmt 1 view .LVU756
 285:fips202.c     ****             BCa = ROL(Ebu, 27);
 2105              		.loc 1 285 13 view .LVU757
 286:fips202.c     ****             Ega ^= Da;
 2106              		.loc 1 286 13 view .LVU758
 2107              		.loc 1 287 13 view .LVU759
 288:fips202.c     ****             BCe = ROL(Ega, 36);
 2108              		.loc 1 288 13 view .LVU760
 287:fips202.c     ****             BCe = ROL(Ega, 36);
 2109              		.loc 1 287 17 is_stmt 0 view .LVU761
 2110 0b4e 2B9B     		ldr	r3, [sp, #172]
 2111 0b50 029C     		ldr	r4, [sp, #8]
 2112              	.LVL287:
 289:fips202.c     ****             Eke ^= De;
 290:fips202.c     ****             BCi = ROL(Eke, 10);
 291:fips202.c     ****             Emi ^= Di;
 2113              		.loc 1 291 17 view .LVU762
 2114 0b52 059F     		ldr	r7, [sp, #20]
 287:fips202.c     ****             BCe = ROL(Ega, 36);
 2115              		.loc 1 287 17 view .LVU763
 2116 0b54 6340     		eors	r3, r3, r4
 288:fips202.c     ****             Eke ^= De;
 2117              		.loc 1 288 17 view .LVU764
 2118 0b56 160F     		lsrs	r6, r2, #28
 2119 0b58 46EA0316 		orr	r6, r6, r3, lsl #4
 2120 0b5c 1B0F     		lsrs	r3, r3, #28
 2121 0b5e 43EA0213 		orr	r3, r3, r2, lsl #4
 2122              	.LVL288:
 289:fips202.c     ****             Eke ^= De;
 2123              		.loc 1 289 13 is_stmt 1 view .LVU765
 290:fips202.c     ****             Emi ^= Di;
 2124              		.loc 1 290 13 view .LVU766
 289:fips202.c     ****             Eke ^= De;
 2125              		.loc 1 289 17 is_stmt 0 view .LVU767
 2126 0b62 039C     		ldr	r4, [sp, #12]
 2127 0b64 309A     		ldr	r2, [sp, #192]
 2128 0b66 82EA0405 		eor	r5, r2, r4
 2129 0b6a 049C     		ldr	r4, [sp, #16]
 2130 0b6c 319A     		ldr	r2, [sp, #196]
 2131 0b6e 6240     		eors	r2, r2, r4
 290:fips202.c     ****             Emi ^= Di;
 2132              		.loc 1 290 17 view .LVU768
 2133 0b70 4FEA8228 		lsl	r8, r2, #10
 2134 0b74 48EA9558 		orr	r8, r8, r5, lsr #22
 2135 0b78 AD02     		lsls	r5, r5, #10
 2136 0b7a 45EA9255 		orr	r5, r5, r2, lsr #22
 2137              	.LVL289:
 2138              		.loc 1 291 13 is_stmt 1 view .LVU769
 292:fips202.c     ****             BCo = ROL(Emi, 15);
 2139              		.loc 1 292 13 view .LVU770
 291:fips202.c     ****             BCo = ROL(Emi, 15);
 2140              		.loc 1 291 17 is_stmt 0 view .LVU771
 2141 0b7e 2C9A     		ldr	r2, [sp, #176]
 2142 0b80 82EA0B04 		eor	r4, r2, fp
 2143 0b84 2D9A     		ldr	r2, [sp, #180]
 2144 0b86 7A40     		eors	r2, r2, r7
 2145              		.loc 1 292 17 view .LVU772
 2146 0b88 4FEAC23E 		lsl	lr, r2, #15
 2147 0b8c 4EEA544E 		orr	lr, lr, r4, lsr #17
 2148 0b90 E403     		lsls	r4, r4, #15
 2149 0b92 44EA5244 		orr	r4, r4, r2, lsr #17
 2150              	.LVL290:
 293:fips202.c     ****             Eso ^= Do;
 2151              		.loc 1 293 13 is_stmt 1 view .LVU773
 294:fips202.c     ****             BCu = ROL(Eso, 56);
 2152              		.loc 1 294 13 view .LVU774
 293:fips202.c     ****             Eso ^= Do;
 2153              		.loc 1 293 17 is_stmt 0 view .LVU775
 2154 0b96 069F     		ldr	r7, [sp, #24]
 2155 0b98 289A     		ldr	r2, [sp, #160]
 2156 0b9a 82EA0709 		eor	r9, r2, r7
 2157 0b9e 299A     		ldr	r2, [sp, #164]
 2158 0ba0 079F     		ldr	r7, [sp, #28]
 2159 0ba2 7A40     		eors	r2, r2, r7
 2160              		.loc 1 294 17 view .LVU776
 2161 0ba4 4FEA1927 		lsr	r7, r9, #8
 2162 0ba8 47EA0267 		orr	r7, r7, r2, lsl #24
 295:fips202.c     ****             Ama =   BCa ^((~BCe)&  BCi );
 2163              		.loc 1 295 33 view .LVU777
 2164 0bac 25EA060A 		bic	r10, r5, r6
 294:fips202.c     ****             BCu = ROL(Eso, 56);
 2165              		.loc 1 294 17 view .LVU778
 2166 0bb0 120A     		lsrs	r2, r2, #8
 2167 0bb2 42EA0962 		orr	r2, r2, r9, lsl #24
 2168              	.LVL291:
 2169              		.loc 1 295 13 is_stmt 1 view .LVU779
 2170              		.loc 1 295 17 is_stmt 0 view .LVU780
 2171 0bb6 8AEA010A 		eor	r10, r10, r1
 2172              		.loc 1 295 33 view .LVU781
 2173 0bba 28EA0309 		bic	r9, r8, r3
 2174              		.loc 1 295 17 view .LVU782
 2175 0bbe 89EA0C09 		eor	r9, r9, ip
 2176 0bc2 CDF8A0A0 		str	r10, [sp, #160]
 2177              	.LVL292:
 296:fips202.c     ****             Ame =   BCe ^((~BCi)&  BCo );
 2178              		.loc 1 296 33 view .LVU783
 2179 0bc6 24EA050A 		bic	r10, r4, r5
 2180              		.loc 1 296 17 view .LVU784
 2181 0bca 8AEA060A 		eor	r10, r10, r6
 295:fips202.c     ****             Ama =   BCa ^((~BCe)&  BCi );
 2182              		.loc 1 295 17 view .LVU785
 2183 0bce CDF8A490 		str	r9, [sp, #164]
 2184              	.LVL293:
 2185              		.loc 1 296 13 is_stmt 1 view .LVU786
 2186              		.loc 1 296 33 is_stmt 0 view .LVU787
 2187 0bd2 2EEA0809 		bic	r9, lr, r8
 2188              	.LVL294:
 2189              		.loc 1 296 17 view .LVU788
 2190 0bd6 89EA0309 		eor	r9, r9, r3
 2191 0bda CDF8A8A0 		str	r10, [sp, #168]
 2192              	.LVL295:
 297:fips202.c     ****             Ami =   BCi ^((~BCo)&  BCu );
 2193              		.loc 1 297 33 view .LVU789
 2194 0bde 27EA040A 		bic	r10, r7, r4
 2195              		.loc 1 297 17 view .LVU790
 2196 0be2 8AEA0505 		eor	r5, r10, r5
 2197              	.LVL296:
 296:fips202.c     ****             Ame =   BCe ^((~BCi)&  BCo );
 2198              		.loc 1 296 17 view .LVU791
 2199 0be6 CDF8AC90 		str	r9, [sp, #172]
 2200              	.LVL297:
 2201              		.loc 1 297 13 is_stmt 1 view .LVU792
 298:fips202.c     ****             Amo =   BCo ^((~BCu)&  BCa );
 299:fips202.c     ****             Amu =   BCu ^((~BCa)&  BCe );
 2202              		.loc 1 299 33 is_stmt 0 view .LVU793
 2203 0bea 23EA0C03 		bic	r3, r3, ip
 2204              	.LVL298:
 297:fips202.c     ****             Ami =   BCi ^((~BCo)&  BCu );
 2205              		.loc 1 297 33 view .LVU794
 2206 0bee 22EA0E09 		bic	r9, r2, lr
 2207              	.LVL299:
 2208              		.loc 1 299 17 view .LVU795
 2209 0bf2 5340     		eors	r3, r3, r2
 297:fips202.c     ****             Ami =   BCi ^((~BCo)&  BCu );
 2210              		.loc 1 297 17 view .LVU796
 2211 0bf4 2C95     		str	r5, [sp, #176]
 2212              	.LVL300:
 2213              		.loc 1 299 33 view .LVU797
 2214 0bf6 26EA0106 		bic	r6, r6, r1
 297:fips202.c     ****             Ami =   BCi ^((~BCo)&  BCu );
 2215              		.loc 1 297 17 view .LVU798
 2216 0bfa 89EA0805 		eor	r5, r9, r8
 2217 0bfe 2D95     		str	r5, [sp, #180]
 2218              	.LVL301:
 298:fips202.c     ****             Amo =   BCo ^((~BCu)&  BCa );
 2219              		.loc 1 298 13 is_stmt 1 view .LVU799
 298:fips202.c     ****             Amo =   BCo ^((~BCu)&  BCa );
 2220              		.loc 1 298 33 is_stmt 0 view .LVU800
 2221 0c00 21EA0708 		bic	r8, r1, r7
 2222              	.LVL302:
 2223              		.loc 1 299 17 view .LVU801
 2224 0c04 3193     		str	r3, [sp, #196]
 2225              	.LVL303:
 2226              		.loc 1 299 17 view .LVU802
 2227 0c06 86EA0701 		eor	r1, r6, r7
 2228              	.LVL304:
 300:fips202.c     **** 
 301:fips202.c     ****             Ebi ^= Di;
 2229              		.loc 1 301 17 view .LVU803
 2230 0c0a 3A9B     		ldr	r3, [sp, #232]
 299:fips202.c     **** 
 2231              		.loc 1 299 17 view .LVU804
 2232 0c0c 3091     		str	r1, [sp, #192]
 298:fips202.c     ****             Amo =   BCo ^((~BCu)&  BCa );
 2233              		.loc 1 298 33 view .LVU805
 2234 0c0e 2CEA0205 		bic	r5, ip, r2
 2235              	.LVL305:
 2236              		.loc 1 301 17 view .LVU806
 2237 0c12 0599     		ldr	r1, [sp, #20]
 2238 0c14 3B9A     		ldr	r2, [sp, #236]
 2239              	.LVL306:
 302:fips202.c     ****             BCa = ROL(Ebi, 62);
 303:fips202.c     ****             Ego ^= Do;
 304:fips202.c     ****             BCe = ROL(Ego, 55);
 305:fips202.c     ****             Eku ^= Du;
 306:fips202.c     ****             BCi = ROL(Eku, 39);
 307:fips202.c     ****             Ema ^= Da;
 2240              		.loc 1 307 17 view .LVU807
 2241 0c16 029F     		ldr	r7, [sp, #8]
 308:fips202.c     ****             BCo = ROL(Ema, 41);
 309:fips202.c     ****             Ese ^= De;
 2242              		.loc 1 309 17 view .LVU808
 2243 0c18 DDF81090 		ldr	r9, [sp, #16]
 301:fips202.c     ****             BCa = ROL(Ebi, 62);
 2244              		.loc 1 301 17 view .LVU809
 2245 0c1c 83EA0B03 		eor	r3, r3, fp
 2246 0c20 4A40     		eors	r2, r2, r1
 302:fips202.c     ****             BCa = ROL(Ebi, 62);
 2247              		.loc 1 302 17 view .LVU810
 2248 0c22 4FEA930C 		lsr	ip, r3, #2
 2249              	.LVL307:
 302:fips202.c     ****             BCa = ROL(Ebi, 62);
 2250              		.loc 1 302 17 view .LVU811
 2251 0c26 4CEA827C 		orr	ip, ip, r2, lsl #30
 2252 0c2a 9208     		lsrs	r2, r2, #2
 2253 0c2c 42EA8372 		orr	r2, r2, r3, lsl #30
 303:fips202.c     ****             BCe = ROL(Ego, 55);
 2254              		.loc 1 303 17 view .LVU812
 2255 0c30 0699     		ldr	r1, [sp, #24]
 2256 0c32 369B     		ldr	r3, [sp, #216]
 298:fips202.c     ****             Amu =   BCu ^((~BCa)&  BCe );
 2257              		.loc 1 298 17 view .LVU813
 2258 0c34 88EA0404 		eor	r4, r8, r4
 2259              	.LVL308:
 298:fips202.c     ****             Amu =   BCu ^((~BCa)&  BCe );
 2260              		.loc 1 298 17 view .LVU814
 2261 0c38 2E94     		str	r4, [sp, #184]
 2262              	.LVL309:
 298:fips202.c     ****             Amu =   BCu ^((~BCa)&  BCe );
 2263              		.loc 1 298 17 view .LVU815
 2264 0c3a 85EA0E04 		eor	r4, r5, lr
 303:fips202.c     ****             BCe = ROL(Ego, 55);
 2265              		.loc 1 303 17 view .LVU816
 2266 0c3e 4B40     		eors	r3, r3, r1
 298:fips202.c     ****             Amu =   BCu ^((~BCa)&  BCe );
 2267              		.loc 1 298 17 view .LVU817
 2268 0c40 2F94     		str	r4, [sp, #188]
 2269              	.LVL310:
 299:fips202.c     **** 
 2270              		.loc 1 299 13 is_stmt 1 view .LVU818
 301:fips202.c     ****             BCa = ROL(Ebi, 62);
 2271              		.loc 1 301 13 view .LVU819
 302:fips202.c     ****             Ego ^= Do;
 2272              		.loc 1 302 13 view .LVU820
 303:fips202.c     ****             BCe = ROL(Ego, 55);
 2273              		.loc 1 303 13 view .LVU821
 304:fips202.c     ****             Eku ^= Du;
 2274              		.loc 1 304 13 view .LVU822
 303:fips202.c     ****             BCe = ROL(Ego, 55);
 2275              		.loc 1 303 17 is_stmt 0 view .LVU823
 2276 0c42 3799     		ldr	r1, [sp, #220]
 2277 0c44 079C     		ldr	r4, [sp, #28]
 2278              	.LVL311:
 304:fips202.c     ****             Eku ^= Du;
 2279              		.loc 1 304 17 view .LVU824
 2280 0c46 5D0A     		lsrs	r5, r3, #9
 303:fips202.c     ****             BCe = ROL(Ego, 55);
 2281              		.loc 1 303 17 view .LVU825
 2282 0c48 81EA0406 		eor	r6, r1, r4
 304:fips202.c     ****             Eku ^= Du;
 2283              		.loc 1 304 17 view .LVU826
 2284 0c4c 45EAC655 		orr	r5, r5, r6, lsl #23
 2285 0c50 760A     		lsrs	r6, r6, #9
 2286 0c52 46EAC356 		orr	r6, r6, r3, lsl #23
 2287              	.LVL312:
 305:fips202.c     ****             BCi = ROL(Eku, 39);
 2288              		.loc 1 305 13 is_stmt 1 view .LVU827
 306:fips202.c     ****             Ema ^= Da;
 2289              		.loc 1 306 13 view .LVU828
 305:fips202.c     ****             BCi = ROL(Eku, 39);
 2290              		.loc 1 305 17 is_stmt 0 view .LVU829
 2291 0c56 0899     		ldr	r1, [sp, #32]
 2292 0c58 329B     		ldr	r3, [sp, #200]
 2293 0c5a 099C     		ldr	r4, [sp, #36]
 2294 0c5c 4B40     		eors	r3, r3, r1
 2295 0c5e 3399     		ldr	r1, [sp, #204]
 306:fips202.c     ****             Ema ^= Da;
 2296              		.loc 1 306 17 view .LVU830
 2297 0c60 4FEA5368 		lsr	r8, r3, #25
 305:fips202.c     ****             BCi = ROL(Eku, 39);
 2298              		.loc 1 305 17 view .LVU831
 2299 0c64 4C40     		eors	r4, r4, r1
 306:fips202.c     ****             Ema ^= Da;
 2300              		.loc 1 306 17 view .LVU832
 2301 0c66 48EAC418 		orr	r8, r8, r4, lsl #7
 2302 0c6a 640E     		lsrs	r4, r4, #25
 2303 0c6c 44EAC314 		orr	r4, r4, r3, lsl #7
 2304              	.LVL313:
 307:fips202.c     ****             BCo = ROL(Ema, 41);
 2305              		.loc 1 307 13 is_stmt 1 view .LVU833
 308:fips202.c     ****             Ese ^= De;
 2306              		.loc 1 308 13 view .LVU834
 307:fips202.c     ****             BCo = ROL(Ema, 41);
 2307              		.loc 1 307 17 is_stmt 0 view .LVU835
 2308 0c70 0199     		ldr	r1, [sp, #4]
 2309 0c72 389B     		ldr	r3, [sp, #224]
 2310 0c74 4B40     		eors	r3, r3, r1
 2311 0c76 3999     		ldr	r1, [sp, #228]
 308:fips202.c     ****             Ese ^= De;
 2312              		.loc 1 308 17 view .LVU836
 2313 0c78 4FEAD35E 		lsr	lr, r3, #23
 307:fips202.c     ****             BCo = ROL(Ema, 41);
 2314              		.loc 1 307 17 view .LVU837
 2315 0c7c 7940     		eors	r1, r1, r7
 308:fips202.c     ****             Ese ^= De;
 2316              		.loc 1 308 17 view .LVU838
 2317 0c7e 4EEA412E 		orr	lr, lr, r1, lsl #9
 2318 0c82 C90D     		lsrs	r1, r1, #23
 2319 0c84 41EA4321 		orr	r1, r1, r3, lsl #9
 2320              	.LVL314:
 2321              		.loc 1 309 13 is_stmt 1 view .LVU839
 310:fips202.c     ****             BCu = ROL(Ese, 2);
 2322              		.loc 1 310 13 view .LVU840
 309:fips202.c     ****             BCu = ROL(Ese, 2);
 2323              		.loc 1 309 17 is_stmt 0 view .LVU841
 2324 0c88 039F     		ldr	r7, [sp, #12]
 2325 0c8a 349B     		ldr	r3, [sp, #208]
 2326 0c8c 7B40     		eors	r3, r3, r7
 2327 0c8e 359F     		ldr	r7, [sp, #212]
 2328 0c90 87EA0909 		eor	r9, r7, r9
 2329              		.loc 1 310 17 view .LVU842
 2330 0c94 4FEA8907 		lsl	r7, r9, #2
 2331 0c98 47EA9377 		orr	r7, r7, r3, lsr #30
 2332 0c9c 9B00     		lsls	r3, r3, #2
 2333 0c9e 43EA9973 		orr	r3, r3, r9, lsr #30
 2334              	.LVL315:
 311:fips202.c     ****             Asa =   BCa ^((~BCe)&  BCi );
 2335              		.loc 1 311 13 is_stmt 1 view .LVU843
 2336              		.loc 1 311 33 is_stmt 0 view .LVU844
 2337 0ca2 28EA050A 		bic	r10, r8, r5
 2338 0ca6 24EA0609 		bic	r9, r4, r6
 2339              		.loc 1 311 17 view .LVU845
 2340 0caa 89EA0209 		eor	r9, r9, r2
 2341 0cae 8AEA0C0A 		eor	r10, r10, ip
 2342 0cb2 CDF8C8A0 		str	r10, [sp, #200]
 2343              	.LVL316:
 2344              		.loc 1 311 17 view .LVU846
 2345 0cb6 CDF8CC90 		str	r9, [sp, #204]
 2346              	.LVL317:
 312:fips202.c     ****             Ase =   BCe ^((~BCi)&  BCo );
 2347              		.loc 1 312 13 is_stmt 1 view .LVU847
 2348              		.loc 1 312 33 is_stmt 0 view .LVU848
 2349 0cba 2EEA080A 		bic	r10, lr, r8
 2350              	.LVL318:
 2351              		.loc 1 312 33 view .LVU849
 2352 0cbe 21EA0409 		bic	r9, r1, r4
 2353              	.LVL319:
 2354              		.loc 1 312 17 view .LVU850
 2355 0cc2 8AEA050A 		eor	r10, r10, r5
 2356 0cc6 89EA0609 		eor	r9, r9, r6
 2357 0cca CDF8D0A0 		str	r10, [sp, #208]
 2358              	.LVL320:
 2359              		.loc 1 312 17 view .LVU851
 2360 0cce CDF8D490 		str	r9, [sp, #212]
 2361              	.LVL321:
 313:fips202.c     ****             Asi =   BCi ^((~BCo)&  BCu );
 2362              		.loc 1 313 13 is_stmt 1 view .LVU852
 2363              		.loc 1 313 33 is_stmt 0 view .LVU853
 2364 0cd2 23EA0E0A 		bic	r10, r3, lr
 2365              	.LVL322:
 2366              		.loc 1 313 33 view .LVU854
 2367 0cd6 27EA0109 		bic	r9, r7, r1
 2368              	.LVL323:
 2369              		.loc 1 313 17 view .LVU855
 2370 0cda 8AEA0808 		eor	r8, r10, r8
 2371              	.LVL324:
 2372              		.loc 1 313 17 view .LVU856
 2373 0cde 89EA0404 		eor	r4, r9, r4
 2374 0ce2 CDF8D880 		str	r8, [sp, #216]
 2375              	.LVL325:
 2376              		.loc 1 313 17 view .LVU857
 2377 0ce6 3794     		str	r4, [sp, #220]
 2378              	.LVL326:
 314:fips202.c     ****             Aso =   BCo ^((~BCu)&  BCa );
 2379              		.loc 1 314 13 is_stmt 1 view .LVU858
 2380              		.loc 1 314 33 is_stmt 0 view .LVU859
 2381 0ce8 2CEA0308 		bic	r8, ip, r3
 2382              	.LVL327:
 2383              		.loc 1 314 33 view .LVU860
 2384 0cec 22EA0704 		bic	r4, r2, r7
 2385              	.LVL328:
 315:fips202.c     ****             Asu =   BCu ^((~BCa)&  BCe );
 2386              		.loc 1 315 33 view .LVU861
 2387 0cf0 25EA0C05 		bic	r5, r5, ip
 2388              	.LVL329:
 2389              		.loc 1 315 17 view .LVU862
 2390 0cf4 6B40     		eors	r3, r3, r5
 2391              	.LVL330:
 314:fips202.c     ****             Aso =   BCo ^((~BCu)&  BCa );
 2392              		.loc 1 314 17 view .LVU863
 2393 0cf6 88EA0E0E 		eor	lr, r8, lr
 2394              	.LVL331:
 314:fips202.c     ****             Aso =   BCo ^((~BCu)&  BCa );
 2395              		.loc 1 314 17 view .LVU864
 2396 0cfa 6140     		eors	r1, r1, r4
 2397              	.LVL332:
 314:fips202.c     ****             Aso =   BCo ^((~BCu)&  BCa );
 2398              		.loc 1 314 17 view .LVU865
 2399 0cfc CDF8E0E0 		str	lr, [sp, #224]
 2400              	.LVL333:
 314:fips202.c     ****             Aso =   BCo ^((~BCu)&  BCa );
 2401              		.loc 1 314 17 view .LVU866
 2402 0d00 3991     		str	r1, [sp, #228]
 2403              	.LVL334:
 2404              		.loc 1 315 13 is_stmt 1 view .LVU867
 2405              		.loc 1 315 17 is_stmt 0 view .LVU868
 2406 0d02 3A93     		str	r3, [sp, #232]
 2407              	.LVL335:
 126:fips202.c     ****             //    prepareTheta
 2408              		.loc 1 126 30 discriminator 1 view .LVU869
 2409 0d04 009B     		ldr	r3, [sp]
 2410 0d06 1033     		adds	r3, r3, #16
 2411 0d08 0093     		str	r3, [sp]
 2412              		.loc 1 315 33 view .LVU870
 2413 0d0a 26EA0206 		bic	r6, r6, r2
 126:fips202.c     ****             //    prepareTheta
 2414              		.loc 1 126 30 discriminator 1 view .LVU871
 2415 0d0e 3D4B     		ldr	r3, .L7
 2416 0d10 009A     		ldr	r2, [sp]
 2417              	.LVL336:
 126:fips202.c     ****             //    prepareTheta
 2418              		.loc 1 126 30 discriminator 1 view .LVU872
 2419 0d12 9342     		cmp	r3, r2
 2420              		.loc 1 315 17 view .LVU873
 2421 0d14 86EA0706 		eor	r6, r6, r7
 2422              	.LVL337:
 126:fips202.c     ****             //    prepareTheta
 2423              		.loc 1 126 47 is_stmt 1 discriminator 3 view .LVU874
 126:fips202.c     ****             //    prepareTheta
 2424              		.loc 1 126 30 discriminator 1 view .LVU875
 2425 0d18 7FF4F0A9 		bne	.L2
 316:fips202.c     ****         }
 317:fips202.c     **** 
 318:fips202.c     ****         //copyToState(state, A)
 319:fips202.c     ****         state[ 0] = Aba;
 2426              		.loc 1 319 9 view .LVU876
 2427              		.loc 1 319 19 is_stmt 0 view .LVU877
 2428 0d1c 0A9B     		ldr	r3, [sp, #40]
 2429 0d1e 0360     		str	r3, [r0]
 2430 0d20 0B9B     		ldr	r3, [sp, #44]
 2431 0d22 4360     		str	r3, [r0, #4]
 320:fips202.c     ****         state[ 1] = Abe;
 2432              		.loc 1 320 9 is_stmt 1 view .LVU878
 2433              		.loc 1 320 19 is_stmt 0 view .LVU879
 2434 0d24 0C9B     		ldr	r3, [sp, #48]
 2435 0d26 8360     		str	r3, [r0, #8]
 2436 0d28 0D9B     		ldr	r3, [sp, #52]
 2437 0d2a C360     		str	r3, [r0, #12]
 321:fips202.c     ****         state[ 2] = Abi;
 2438              		.loc 1 321 9 is_stmt 1 view .LVU880
 2439              		.loc 1 321 19 is_stmt 0 view .LVU881
 2440 0d2c 0E9B     		ldr	r3, [sp, #56]
 2441 0d2e 0361     		str	r3, [r0, #16]
 2442 0d30 0F9B     		ldr	r3, [sp, #60]
 2443 0d32 4361     		str	r3, [r0, #20]
 322:fips202.c     ****         state[ 3] = Abo;
 2444              		.loc 1 322 9 is_stmt 1 view .LVU882
 2445              		.loc 1 322 19 is_stmt 0 view .LVU883
 2446 0d34 109B     		ldr	r3, [sp, #64]
 2447 0d36 8361     		str	r3, [r0, #24]
 2448 0d38 119B     		ldr	r3, [sp, #68]
 2449 0d3a C361     		str	r3, [r0, #28]
 323:fips202.c     ****         state[ 4] = Abu;
 2450              		.loc 1 323 9 is_stmt 1 view .LVU884
 2451              		.loc 1 323 19 is_stmt 0 view .LVU885
 2452 0d3c 129B     		ldr	r3, [sp, #72]
 2453 0d3e 0362     		str	r3, [r0, #32]
 2454 0d40 139B     		ldr	r3, [sp, #76]
 2455 0d42 4362     		str	r3, [r0, #36]
 324:fips202.c     ****         state[ 5] = Aga;
 2456              		.loc 1 324 9 is_stmt 1 view .LVU886
 2457              		.loc 1 324 19 is_stmt 0 view .LVU887
 2458 0d44 149B     		ldr	r3, [sp, #80]
 2459 0d46 8362     		str	r3, [r0, #40]
 2460 0d48 159B     		ldr	r3, [sp, #84]
 2461 0d4a C362     		str	r3, [r0, #44]
 325:fips202.c     ****         state[ 6] = Age;
 2462              		.loc 1 325 9 is_stmt 1 view .LVU888
 2463              		.loc 1 325 19 is_stmt 0 view .LVU889
 2464 0d4c 169B     		ldr	r3, [sp, #88]
 2465 0d4e 0363     		str	r3, [r0, #48]
 2466 0d50 179B     		ldr	r3, [sp, #92]
 2467 0d52 4363     		str	r3, [r0, #52]
 326:fips202.c     ****         state[ 7] = Agi;
 2468              		.loc 1 326 9 is_stmt 1 view .LVU890
 2469              		.loc 1 326 19 is_stmt 0 view .LVU891
 2470 0d54 189B     		ldr	r3, [sp, #96]
 2471 0d56 8363     		str	r3, [r0, #56]
 2472 0d58 199B     		ldr	r3, [sp, #100]
 2473 0d5a C363     		str	r3, [r0, #60]
 327:fips202.c     ****         state[ 8] = Ago;
 2474              		.loc 1 327 9 is_stmt 1 view .LVU892
 2475              		.loc 1 327 19 is_stmt 0 view .LVU893
 2476 0d5c 1A9B     		ldr	r3, [sp, #104]
 2477 0d5e 0364     		str	r3, [r0, #64]
 2478 0d60 1B9B     		ldr	r3, [sp, #108]
 2479 0d62 4364     		str	r3, [r0, #68]
 328:fips202.c     ****         state[ 9] = Agu;
 2480              		.loc 1 328 9 is_stmt 1 view .LVU894
 2481              		.loc 1 328 19 is_stmt 0 view .LVU895
 2482 0d64 1C9B     		ldr	r3, [sp, #112]
 2483 0d66 8364     		str	r3, [r0, #72]
 2484 0d68 1D9B     		ldr	r3, [sp, #116]
 2485 0d6a C364     		str	r3, [r0, #76]
 329:fips202.c     ****         state[10] = Aka;
 2486              		.loc 1 329 9 is_stmt 1 view .LVU896
 2487              		.loc 1 329 19 is_stmt 0 view .LVU897
 2488 0d6c 1E9B     		ldr	r3, [sp, #120]
 2489 0d6e 0365     		str	r3, [r0, #80]
 2490 0d70 1F9B     		ldr	r3, [sp, #124]
 2491 0d72 4365     		str	r3, [r0, #84]
 330:fips202.c     ****         state[11] = Ake;
 2492              		.loc 1 330 9 is_stmt 1 view .LVU898
 2493              		.loc 1 330 19 is_stmt 0 view .LVU899
 2494 0d74 209B     		ldr	r3, [sp, #128]
 2495 0d76 8365     		str	r3, [r0, #88]
 2496 0d78 219B     		ldr	r3, [sp, #132]
 2497 0d7a C365     		str	r3, [r0, #92]
 331:fips202.c     ****         state[12] = Aki;
 2498              		.loc 1 331 9 is_stmt 1 view .LVU900
 2499              		.loc 1 331 19 is_stmt 0 view .LVU901
 2500 0d7c 229B     		ldr	r3, [sp, #136]
 2501 0d7e 0366     		str	r3, [r0, #96]
 2502 0d80 239B     		ldr	r3, [sp, #140]
 2503 0d82 4366     		str	r3, [r0, #100]
 332:fips202.c     ****         state[13] = Ako;
 2504              		.loc 1 332 9 is_stmt 1 view .LVU902
 2505              		.loc 1 332 19 is_stmt 0 view .LVU903
 2506 0d84 249B     		ldr	r3, [sp, #144]
 2507 0d86 8366     		str	r3, [r0, #104]
 2508 0d88 259B     		ldr	r3, [sp, #148]
 2509 0d8a C366     		str	r3, [r0, #108]
 333:fips202.c     ****         state[14] = Aku;
 2510              		.loc 1 333 9 is_stmt 1 view .LVU904
 2511              		.loc 1 333 19 is_stmt 0 view .LVU905
 2512 0d8c 269B     		ldr	r3, [sp, #152]
 2513 0d8e 0367     		str	r3, [r0, #112]
 2514 0d90 279B     		ldr	r3, [sp, #156]
 2515 0d92 4367     		str	r3, [r0, #116]
 334:fips202.c     ****         state[15] = Ama;
 2516              		.loc 1 334 9 is_stmt 1 view .LVU906
 2517              		.loc 1 334 19 is_stmt 0 view .LVU907
 2518 0d94 289B     		ldr	r3, [sp, #160]
 2519 0d96 8367     		str	r3, [r0, #120]
 2520 0d98 299B     		ldr	r3, [sp, #164]
 2521 0d9a C367     		str	r3, [r0, #124]
 335:fips202.c     ****         state[16] = Ame;
 2522              		.loc 1 335 9 is_stmt 1 view .LVU908
 2523              		.loc 1 335 19 is_stmt 0 view .LVU909
 2524 0d9c 2A9B     		ldr	r3, [sp, #168]
 2525 0d9e C0F88030 		str	r3, [r0, #128]
 2526 0da2 2B9B     		ldr	r3, [sp, #172]
 2527 0da4 C0F88430 		str	r3, [r0, #132]
 336:fips202.c     ****         state[17] = Ami;
 2528              		.loc 1 336 9 is_stmt 1 view .LVU910
 2529              		.loc 1 336 19 is_stmt 0 view .LVU911
 2530 0da8 2C9B     		ldr	r3, [sp, #176]
 2531 0daa C0F88830 		str	r3, [r0, #136]
 2532 0dae 2D9B     		ldr	r3, [sp, #180]
 2533 0db0 C0F88C30 		str	r3, [r0, #140]
 337:fips202.c     ****         state[18] = Amo;
 2534              		.loc 1 337 9 is_stmt 1 view .LVU912
 2535              		.loc 1 337 19 is_stmt 0 view .LVU913
 2536 0db4 2E9B     		ldr	r3, [sp, #184]
 2537 0db6 C0F89030 		str	r3, [r0, #144]
 2538 0dba 2F9B     		ldr	r3, [sp, #188]
 2539 0dbc C0F89430 		str	r3, [r0, #148]
 338:fips202.c     ****         state[19] = Amu;
 2540              		.loc 1 338 9 is_stmt 1 view .LVU914
 2541              		.loc 1 338 19 is_stmt 0 view .LVU915
 2542 0dc0 309B     		ldr	r3, [sp, #192]
 2543 0dc2 C0F89830 		str	r3, [r0, #152]
 2544 0dc6 319B     		ldr	r3, [sp, #196]
 2545 0dc8 C0F89C30 		str	r3, [r0, #156]
 339:fips202.c     ****         state[20] = Asa;
 2546              		.loc 1 339 9 is_stmt 1 view .LVU916
 2547              		.loc 1 339 19 is_stmt 0 view .LVU917
 2548 0dcc 329B     		ldr	r3, [sp, #200]
 2549 0dce C0F8A030 		str	r3, [r0, #160]
 2550 0dd2 339B     		ldr	r3, [sp, #204]
 2551 0dd4 C0F8A430 		str	r3, [r0, #164]
 340:fips202.c     ****         state[21] = Ase;
 2552              		.loc 1 340 9 is_stmt 1 view .LVU918
 2553              		.loc 1 340 19 is_stmt 0 view .LVU919
 2554 0dd8 349B     		ldr	r3, [sp, #208]
 2555 0dda C0F8A830 		str	r3, [r0, #168]
 2556 0dde 359B     		ldr	r3, [sp, #212]
 2557 0de0 C0F8AC30 		str	r3, [r0, #172]
 341:fips202.c     ****         state[22] = Asi;
 2558              		.loc 1 341 9 is_stmt 1 view .LVU920
 2559              		.loc 1 341 19 is_stmt 0 view .LVU921
 2560 0de4 369B     		ldr	r3, [sp, #216]
 2561 0de6 C0F8B030 		str	r3, [r0, #176]
 2562 0dea 379B     		ldr	r3, [sp, #220]
 2563 0dec C0F8B430 		str	r3, [r0, #180]
 342:fips202.c     ****         state[23] = Aso;
 2564              		.loc 1 342 9 is_stmt 1 view .LVU922
 343:fips202.c     ****         state[24] = Asu;
 2565              		.loc 1 343 19 is_stmt 0 view .LVU923
 2566 0df0 3A9B     		ldr	r3, [sp, #232]
 342:fips202.c     ****         state[23] = Aso;
 2567              		.loc 1 342 19 view .LVU924
 2568 0df2 C0F8B8E0 		str	lr, [r0, #184]
 2569 0df6 C0F8BC10 		str	r1, [r0, #188]
 2570              		.loc 1 343 9 is_stmt 1 view .LVU925
 2571              		.loc 1 343 19 is_stmt 0 view .LVU926
 2572 0dfa C0E93036 		strd	r3, r6, [r0, #192]
 344:fips202.c     **** }
 2573              		.loc 1 344 1 view .LVU927
 2574 0dfe 3DB0     		add	sp, sp, #244
 2575              	.LCFI2:
 2576              		.cfi_def_cfa_offset 36
 2577              		@ sp needed
 2578 0e00 BDE8F08F 		pop	{r4, r5, r6, r7, r8, r9, r10, fp, pc}
 2579              	.LVL338:
 2580              	.L8:
 2581              		.loc 1 344 1 view .LVU928
 2582              		.align	2
 2583              	.L7:
 2584 0e04 C0000000 		.word	.LANCHOR0+192
 2585              		.cfi_endproc
 2586              	.LFE2:
 2588              		.section	.text.keccak_absorb,"ax",%progbits
 2589              		.align	1
 2590              		.syntax unified
 2591              		.thumb
 2592              		.thumb_func
 2594              	keccak_absorb:
 2595              	.LVL339:
 2596              	.LFB4:
 345:fips202.c     **** 
 346:fips202.c     **** /*************************************************
 347:fips202.c     **** * Name:        keccak_init
 348:fips202.c     **** *
 349:fips202.c     **** * Description: Initializes the Keccak state.
 350:fips202.c     **** *
 351:fips202.c     **** * Arguments:   - uint64_t *s: pointer to Keccak state
 352:fips202.c     **** **************************************************/
 353:fips202.c     **** static void keccak_init(uint64_t s[25])
 354:fips202.c     **** {
 355:fips202.c     ****   unsigned int i;
 356:fips202.c     ****   for(i=0;i<25;i++)
 357:fips202.c     ****     s[i] = 0;
 358:fips202.c     **** }
 359:fips202.c     **** 
 360:fips202.c     **** /*************************************************
 361:fips202.c     **** * Name:        keccak_absorb
 362:fips202.c     **** *
 363:fips202.c     **** * Description: Absorb step of Keccak; incremental.
 364:fips202.c     **** *
 365:fips202.c     **** * Arguments:   - uint64_t *s: pointer to Keccak state
 366:fips202.c     **** *              - unsigned int pos: position in current block to be absorbed
 367:fips202.c     **** *              - unsigned int r: rate in bytes (e.g., 168 for SHAKE128)
 368:fips202.c     **** *              - const uint8_t *in: pointer to input to be absorbed into s
 369:fips202.c     **** *              - size_t inlen: length of input in bytes
 370:fips202.c     **** *
 371:fips202.c     **** * Returns new position pos in current block
 372:fips202.c     **** **************************************************/
 373:fips202.c     **** static unsigned int keccak_absorb(uint64_t s[25],
 374:fips202.c     ****                                   unsigned int pos,
 375:fips202.c     ****                                   unsigned int r,
 376:fips202.c     ****                                   const uint8_t *in,
 377:fips202.c     ****                                   size_t inlen)
 378:fips202.c     **** {
 2597              		.loc 1 378 1 is_stmt 1 view -0
 2598              		.cfi_startproc
 2599              		@ args = 4, pretend = 0, frame = 8
 2600              		@ frame_needed = 0, uses_anonymous_args = 0
 2601              		.loc 1 378 1 is_stmt 0 view .LVU930
 2602 0000 2DE9F347 		push	{r0, r1, r4, r5, r6, r7, r8, r9, r10, lr}
 2603              	.LCFI3:
 2604              		.cfi_def_cfa_offset 40
 2605              		.cfi_offset 4, -32
 2606              		.cfi_offset 5, -28
 2607              		.cfi_offset 6, -24
 2608              		.cfi_offset 7, -20
 2609              		.cfi_offset 8, -16
 2610              		.cfi_offset 9, -12
 2611              		.cfi_offset 10, -8
 2612              		.cfi_offset 14, -4
 2613 0004 0A9E     		ldr	r6, [sp, #40]
 379:fips202.c     ****   unsigned int i;
 2614              		.loc 1 379 3 is_stmt 1 view .LVU931
 380:fips202.c     **** 
 381:fips202.c     ****   while(pos+inlen >= r) {
 2615              		.loc 1 381 3 view .LVU932
 378:fips202.c     ****   unsigned int i;
 2616              		.loc 1 378 1 is_stmt 0 view .LVU933
 2617 0006 1546     		mov	r5, r2
 2618 0008 1C46     		mov	r4, r3
 2619              	.LVL340:
 2620              	.L10:
 2621              		.loc 1 381 19 is_stmt 1 view .LVU934
 2622 000a 11EB060C 		adds	ip, r1, r6
 2623 000e 2CBF     		ite	cs
 2624 0010 4FF00108 		movcs	r8, #1
 2625 0014 4FF00008 		movcc	r8, #0
 2626 0018 AC45     		cmp	ip, r5
 382:fips202.c     ****     for(i=pos;i<r;i++)
 2627              		.loc 1 382 10 is_stmt 0 view .LVU935
 2628 001a 0B46     		mov	r3, r1
 381:fips202.c     ****     for(i=pos;i<r;i++)
 2629              		.loc 1 381 19 view .LVU936
 2630 001c 38D2     		bcs	.L17
 2631              	.LVL341:
 2632              	.L15:
 383:fips202.c     ****       s[i/8] ^= (uint64_t)*in++ << 8*(i%8);
 384:fips202.c     ****     inlen -= r-pos;
 385:fips202.c     ****     KeccakF1600_StatePermute(s);
 386:fips202.c     ****     pos = 0;
 387:fips202.c     ****   }
 388:fips202.c     **** 
 389:fips202.c     ****   for(i=pos;i<pos+inlen;i++)
 2633              		.loc 1 389 14 is_stmt 1 discriminator 1 view .LVU937
 2634 001e 9C45     		cmp	ip, r3
 2635 0020 38D8     		bhi	.L16
 390:fips202.c     ****     s[i/8] ^= (uint64_t)*in++ << 8*(i%8);
 391:fips202.c     **** 
 392:fips202.c     ****   return i;
 2636              		.loc 1 392 3 view .LVU938
 2637              		.loc 1 392 10 is_stmt 0 discriminator 1 view .LVU939
 2638 0022 B8F1000F 		cmp	r8, #0
 2639 0026 0CBF     		ite	eq
 2640 0028 3046     		moveq	r0, r6
 2641              	.LVL342:
 2642              		.loc 1 392 10 discriminator 1 view .LVU940
 2643 002a 0020     		movne	r0, #0
 393:fips202.c     **** }
 2644              		.loc 1 393 1 view .LVU941
 2645 002c 0844     		add	r0, r0, r1
 2646 002e 02B0     		add	sp, sp, #8
 2647              	.LCFI4:
 2648              		.cfi_remember_state
 2649              		.cfi_def_cfa_offset 32
 2650              		@ sp needed
 2651 0030 BDE8F087 		pop	{r4, r5, r6, r7, r8, r9, r10, pc}
 2652              	.LVL343:
 2653              	.L11:
 2654              	.LCFI5:
 2655              		.cfi_restore_state
 383:fips202.c     ****       s[i/8] ^= (uint64_t)*in++ << 8*(i%8);
 2656              		.loc 1 383 7 is_stmt 1 view .LVU942
 383:fips202.c     ****       s[i/8] ^= (uint64_t)*in++ << 8*(i%8);
 2657              		.loc 1 383 40 is_stmt 0 view .LVU943
 2658 0034 03F00706 		and	r6, r3, #7
 383:fips202.c     ****       s[i/8] ^= (uint64_t)*in++ << 8*(i%8);
 2659              		.loc 1 383 17 view .LVU944
 2660 0038 19F8012B 		ldrb	r2, [r9], #1	@ zero_extendqisi2
 2661              	.LVL344:
 383:fips202.c     ****       s[i/8] ^= (uint64_t)*in++ << 8*(i%8);
 2662              		.loc 1 383 8 view .LVU945
 2663 003c 23F00708 		bic	r8, r3, #7
 383:fips202.c     ****       s[i/8] ^= (uint64_t)*in++ << 8*(i%8);
 2664              		.loc 1 383 37 view .LVU946
 2665 0040 F600     		lsls	r6, r6, #3
 383:fips202.c     ****       s[i/8] ^= (uint64_t)*in++ << 8*(i%8);
 2666              		.loc 1 383 8 view .LVU947
 2667 0042 00EB080A 		add	r10, r0, r8
 383:fips202.c     ****       s[i/8] ^= (uint64_t)*in++ << 8*(i%8);
 2668              		.loc 1 383 33 view .LVU948
 2669 0046 A6F12007 		sub	r7, r6, #32
 2670 004a C6F1200E 		rsb	lr, r6, #32
 2671 004e 22FA0EFE 		lsr	lr, r2, lr
 2672 0052 02FA07F7 		lsl	r7, r2, r7
 2673 0056 47EA0E07 		orr	r7, r7, lr
 2674 005a 02FA06FE 		lsl	lr, r2, r6
 383:fips202.c     ****       s[i/8] ^= (uint64_t)*in++ << 8*(i%8);
 2675              		.loc 1 383 14 view .LVU949
 2676 005e 50F80860 		ldr	r6, [r0, r8]
 2677 0062 DAF80420 		ldr	r2, [r10, #4]
 2678 0066 86EA0E06 		eor	r6, r6, lr
 2679 006a 7A40     		eors	r2, r2, r7
 2680 006c 40F80860 		str	r6, [r0, r8]
 382:fips202.c     ****       s[i/8] ^= (uint64_t)*in++ << 8*(i%8);
 2681              		.loc 1 382 20 discriminator 3 view .LVU950
 2682 0070 0133     		adds	r3, r3, #1
 2683              	.LVL345:
 383:fips202.c     ****     inlen -= r-pos;
 2684              		.loc 1 383 14 view .LVU951
 2685 0072 CAF80420 		str	r2, [r10, #4]
 382:fips202.c     ****       s[i/8] ^= (uint64_t)*in++ << 8*(i%8);
 2686              		.loc 1 382 20 is_stmt 1 discriminator 3 view .LVU952
 2687              	.LVL346:
 2688              	.L14:
 382:fips202.c     ****       s[i/8] ^= (uint64_t)*in++ << 8*(i%8);
 2689              		.loc 1 382 16 discriminator 1 view .LVU953
 2690 0076 AB42     		cmp	r3, r5
 2691 0078 DCD3     		bcc	.L11
 382:fips202.c     ****       s[i/8] ^= (uint64_t)*in++ << 8*(i%8);
 2692              		.loc 1 382 16 is_stmt 0 discriminator 1 view .LVU954
 2693 007a 6B1A     		subs	r3, r5, r1
 2694              	.LVL347:
 382:fips202.c     ****       s[i/8] ^= (uint64_t)*in++ << 8*(i%8);
 2695              		.loc 1 382 16 discriminator 1 view .LVU955
 2696 007c A942     		cmp	r1, r5
 2697 007e 88BF     		it	hi
 2698 0080 0023     		movhi	r3, #0
 2699 0082 1C44     		add	r4, r4, r3
 384:fips202.c     ****     KeccakF1600_StatePermute(s);
 2700              		.loc 1 384 5 is_stmt 1 view .LVU956
 384:fips202.c     ****     KeccakF1600_StatePermute(s);
 2701              		.loc 1 384 11 is_stmt 0 view .LVU957
 2702 0084 ACEB0506 		sub	r6, ip, r5
 2703              	.LVL348:
 385:fips202.c     ****     pos = 0;
 2704              		.loc 1 385 5 is_stmt 1 view .LVU958
 2705 0088 FFF7FEFF 		bl	KeccakF1600_StatePermute
 2706              	.LVL349:
 386:fips202.c     ****   }
 2707              		.loc 1 386 5 view .LVU959
 386:fips202.c     ****   }
 2708              		.loc 1 386 9 is_stmt 0 view .LVU960
 2709 008c 0021     		movs	r1, #0
 2710 008e BCE7     		b	.L10
 2711              	.LVL350:
 2712              	.L17:
 386:fips202.c     ****   }
 2713              		.loc 1 386 9 view .LVU961
 2714 0090 A146     		mov	r9, r4
 2715 0092 F0E7     		b	.L14
 2716              	.LVL351:
 2717              	.L16:
 390:fips202.c     **** 
 2718              		.loc 1 390 5 is_stmt 1 view .LVU962
 390:fips202.c     **** 
 2719              		.loc 1 390 6 is_stmt 0 view .LVU963
 2720 0094 23F0070E 		bic	lr, r3, #7
 390:fips202.c     **** 
 2721              		.loc 1 390 38 view .LVU964
 2722 0098 03F00707 		and	r7, r3, #7
 390:fips202.c     **** 
 2723              		.loc 1 390 15 view .LVU965
 2724 009c 14F8015B 		ldrb	r5, [r4], #1	@ zero_extendqisi2
 2725              	.LVL352:
 390:fips202.c     **** 
 2726              		.loc 1 390 35 view .LVU966
 2727 00a0 FF00     		lsls	r7, r7, #3
 390:fips202.c     **** 
 2728              		.loc 1 390 6 view .LVU967
 2729 00a2 00EB0E09 		add	r9, r0, lr
 390:fips202.c     **** 
 2730              		.loc 1 390 31 view .LVU968
 2731 00a6 A7F12002 		sub	r2, r7, #32
 2732 00aa C7F1200A 		rsb	r10, r7, #32
 2733 00ae 05FA02F2 		lsl	r2, r5, r2
 2734 00b2 25FA0AFA 		lsr	r10, r5, r10
 2735 00b6 BD40     		lsls	r5, r5, r7
 390:fips202.c     **** 
 2736              		.loc 1 390 12 view .LVU969
 2737 00b8 D9F80470 		ldr	r7, [r9, #4]
 2738 00bc 0197     		str	r7, [sp, #4]
 2739 00be 50F80E70 		ldr	r7, [r0, lr]
 2740 00c2 7D40     		eors	r5, r5, r7
 2741 00c4 019F     		ldr	r7, [sp, #4]
 2742 00c6 40F80E50 		str	r5, [r0, lr]
 390:fips202.c     **** 
 2743              		.loc 1 390 31 view .LVU970
 2744 00ca 42EA0A02 		orr	r2, r2, r10
 390:fips202.c     **** 
 2745              		.loc 1 390 12 view .LVU971
 2746 00ce 5740     		eors	r7, r7, r2
 2747 00d0 C9F80470 		str	r7, [r9, #4]
 389:fips202.c     ****     s[i/8] ^= (uint64_t)*in++ << 8*(i%8);
 2748              		.loc 1 389 26 is_stmt 1 discriminator 3 view .LVU972
 2749 00d4 0133     		adds	r3, r3, #1
 2750              	.LVL353:
 389:fips202.c     ****     s[i/8] ^= (uint64_t)*in++ << 8*(i%8);
 2751              		.loc 1 389 26 is_stmt 0 discriminator 3 view .LVU973
 2752 00d6 A2E7     		b	.L15
 2753              		.cfi_endproc
 2754              	.LFE4:
 2756              		.section	.text.keccak_squeeze,"ax",%progbits
 2757              		.align	1
 2758              		.syntax unified
 2759              		.thumb
 2760              		.thumb_func
 2762              	keccak_squeeze:
 2763              	.LVL354:
 2764              	.LFB6:
 394:fips202.c     **** 
 395:fips202.c     **** /*************************************************
 396:fips202.c     **** * Name:        keccak_finalize
 397:fips202.c     **** *
 398:fips202.c     **** * Description: Finalize absorb step.
 399:fips202.c     **** *
 400:fips202.c     **** * Arguments:   - uint64_t *s: pointer to Keccak state
 401:fips202.c     **** *              - unsigned int pos: position in current block to be absorbed
 402:fips202.c     **** *              - unsigned int r: rate in bytes (e.g., 168 for SHAKE128)
 403:fips202.c     **** *              - uint8_t p: domain separation byte
 404:fips202.c     **** **************************************************/
 405:fips202.c     **** static void keccak_finalize(uint64_t s[25], unsigned int pos, unsigned int r, uint8_t p)
 406:fips202.c     **** {
 407:fips202.c     ****   s[pos/8] ^= (uint64_t)p << 8*(pos%8);
 408:fips202.c     ****   s[r/8-1] ^= 1ULL << 63;
 409:fips202.c     **** }
 410:fips202.c     **** 
 411:fips202.c     **** /*************************************************
 412:fips202.c     **** * Name:        keccak_squeeze
 413:fips202.c     **** *
 414:fips202.c     **** * Description: Squeeze step of Keccak. Squeezes arbitratrily many bytes.
 415:fips202.c     **** *              Modifies the state. Can be called multiple times to keep
 416:fips202.c     **** *              squeezing, i.e., is incremental.
 417:fips202.c     **** *
 418:fips202.c     **** * Arguments:   - uint8_t *out: pointer to output
 419:fips202.c     **** *              - size_t outlen: number of bytes to be squeezed (written to out)
 420:fips202.c     **** *              - uint64_t *s: pointer to input/output Keccak state
 421:fips202.c     **** *              - unsigned int pos: number of bytes in current block already squeezed
 422:fips202.c     **** *              - unsigned int r: rate in bytes (e.g., 168 for SHAKE128)
 423:fips202.c     **** *
 424:fips202.c     **** * Returns new position pos in current block
 425:fips202.c     **** **************************************************/
 426:fips202.c     **** static unsigned int keccak_squeeze(uint8_t *out,
 427:fips202.c     ****                                    size_t outlen,
 428:fips202.c     ****                                    uint64_t s[25],
 429:fips202.c     ****                                    unsigned int pos,
 430:fips202.c     ****                                    unsigned int r)
 431:fips202.c     **** {
 2765              		.loc 1 431 1 is_stmt 1 view -0
 2766              		.cfi_startproc
 2767              		@ args = 4, pretend = 0, frame = 0
 2768              		@ frame_needed = 0, uses_anonymous_args = 0
 2769              		.loc 1 431 1 is_stmt 0 view .LVU975
 2770 0000 F8B5     		push	{r3, r4, r5, r6, r7, lr}
 2771              	.LCFI6:
 2772              		.cfi_def_cfa_offset 24
 2773              		.cfi_offset 3, -24
 2774              		.cfi_offset 4, -20
 2775              		.cfi_offset 5, -16
 2776              		.cfi_offset 6, -12
 2777              		.cfi_offset 7, -8
 2778              		.cfi_offset 14, -4
 2779 0002 069E     		ldr	r6, [sp, #24]
 432:fips202.c     ****   unsigned int i;
 2780              		.loc 1 432 3 is_stmt 1 view .LVU976
 433:fips202.c     **** 
 434:fips202.c     ****   while(outlen) {
 2781              		.loc 1 434 3 view .LVU977
 431:fips202.c     ****   unsigned int i;
 2782              		.loc 1 431 1 is_stmt 0 view .LVU978
 2783 0004 0546     		mov	r5, r0
 2784 0006 0C46     		mov	r4, r1
 2785 0008 1046     		mov	r0, r2
 2786              	.LVL355:
 2787              	.L19:
 2788              		.loc 1 434 9 is_stmt 1 view .LVU979
 2789 000a 0CB9     		cbnz	r4, .L24
 435:fips202.c     ****     if(pos == r) {
 436:fips202.c     ****       KeccakF1600_StatePermute(s);
 437:fips202.c     ****       pos = 0;
 438:fips202.c     ****     }
 439:fips202.c     ****     for(i=pos;i < r && i < pos+outlen; i++)
 440:fips202.c     ****       *out++ = s[i/8] >> 8*(i%8);
 441:fips202.c     ****     outlen -= i-pos;
 442:fips202.c     ****     pos = i;
 443:fips202.c     ****   }
 444:fips202.c     **** 
 445:fips202.c     ****   return pos;
 2790              		.loc 1 445 3 view .LVU980
 446:fips202.c     **** }
 2791              		.loc 1 446 1 is_stmt 0 view .LVU981
 2792 000c 1846     		mov	r0, r3
 2793              	.LVL356:
 2794              		.loc 1 446 1 view .LVU982
 2795 000e F8BD     		pop	{r3, r4, r5, r6, r7, pc}
 2796              	.LVL357:
 2797              	.L24:
 435:fips202.c     ****     if(pos == r) {
 2798              		.loc 1 435 5 is_stmt 1 view .LVU983
 435:fips202.c     ****     if(pos == r) {
 2799              		.loc 1 435 7 is_stmt 0 view .LVU984
 2800 0010 B342     		cmp	r3, r6
 2801 0012 02D1     		bne	.L20
 436:fips202.c     ****       pos = 0;
 2802              		.loc 1 436 7 is_stmt 1 view .LVU985
 2803 0014 FFF7FEFF 		bl	KeccakF1600_StatePermute
 2804              	.LVL358:
 437:fips202.c     ****     }
 2805              		.loc 1 437 7 view .LVU986
 437:fips202.c     ****     }
 2806              		.loc 1 437 11 is_stmt 0 view .LVU987
 2807 0018 0023     		movs	r3, #0
 2808              	.LVL359:
 2809              	.L20:
 439:fips202.c     ****       *out++ = s[i/8] >> 8*(i%8);
 2810              		.loc 1 439 5 is_stmt 1 view .LVU988
 439:fips202.c     ****       *out++ = s[i/8] >> 8*(i%8);
 2811              		.loc 1 439 31 is_stmt 0 discriminator 3 view .LVU989
 2812 001a 1C44     		add	r4, r4, r3
 2813              	.LVL360:
 2814              	.L21:
 439:fips202.c     ****       *out++ = s[i/8] >> 8*(i%8);
 2815              		.loc 1 439 21 is_stmt 1 discriminator 1 view .LVU990
 2816 001c B342     		cmp	r3, r6
 2817 001e 01D2     		bcs	.L22
 439:fips202.c     ****       *out++ = s[i/8] >> 8*(i%8);
 2818              		.loc 1 439 21 is_stmt 0 discriminator 3 view .LVU991
 2819 0020 A342     		cmp	r3, r4
 2820 0022 01D3     		bcc	.L23
 2821              	.L22:
 441:fips202.c     ****     pos = i;
 2822              		.loc 1 441 5 is_stmt 1 view .LVU992
 441:fips202.c     ****     pos = i;
 2823              		.loc 1 441 12 is_stmt 0 view .LVU993
 2824 0024 E41A     		subs	r4, r4, r3
 2825              	.LVL361:
 442:fips202.c     ****   }
 2826              		.loc 1 442 5 is_stmt 1 view .LVU994
 442:fips202.c     ****   }
 2827              		.loc 1 442 5 is_stmt 0 view .LVU995
 2828 0026 F0E7     		b	.L19
 2829              	.LVL362:
 2830              	.L23:
 440:fips202.c     ****     outlen -= i-pos;
 2831              		.loc 1 440 7 is_stmt 1 view .LVU996
 440:fips202.c     ****     outlen -= i-pos;
 2832              		.loc 1 440 17 is_stmt 0 view .LVU997
 2833 0028 23F00701 		bic	r1, r3, #7
 2834 002c 4718     		adds	r7, r0, r1
 440:fips202.c     ****     outlen -= i-pos;
 2835              		.loc 1 440 30 view .LVU998
 2836 002e 03F00702 		and	r2, r3, #7
 440:fips202.c     ****     outlen -= i-pos;
 2837              		.loc 1 440 23 view .LVU999
 2838 0032 D7F804E0 		ldr	lr, [r7, #4]
 2839 0036 4158     		ldr	r1, [r0, r1]
 440:fips202.c     ****     outlen -= i-pos;
 2840              		.loc 1 440 27 view .LVU1000
 2841 0038 D200     		lsls	r2, r2, #3
 440:fips202.c     ****     outlen -= i-pos;
 2842              		.loc 1 440 23 view .LVU1001
 2843 003a C2F1200C 		rsb	ip, r2, #32
 2844 003e A2F12007 		sub	r7, r2, #32
 2845 0042 D140     		lsrs	r1, r1, r2
 2846 0044 0EFA0CFC 		lsl	ip, lr, ip
 2847 0048 41EA0C01 		orr	r1, r1, ip
 2848 004c 2EFA07F7 		lsr	r7, lr, r7
 2849 0050 3943     		orrs	r1, r1, r7
 440:fips202.c     ****     outlen -= i-pos;
 2850              		.loc 1 440 14 view .LVU1002
 2851 0052 05F8011B 		strb	r1, [r5], #1
 2852              	.LVL363:
 439:fips202.c     ****       *out++ = s[i/8] >> 8*(i%8);
 2853              		.loc 1 439 41 is_stmt 1 discriminator 4 view .LVU1003
 2854 0056 0133     		adds	r3, r3, #1
 2855              	.LVL364:
 439:fips202.c     ****       *out++ = s[i/8] >> 8*(i%8);
 2856              		.loc 1 439 41 is_stmt 0 discriminator 4 view .LVU1004
 2857 0058 E0E7     		b	.L21
 2858              		.cfi_endproc
 2859              	.LFE6:
 2861              		.section	.text.keccak_absorb_once,"ax",%progbits
 2862              		.align	1
 2863              		.syntax unified
 2864              		.thumb
 2865              		.thumb_func
 2867              	keccak_absorb_once:
 2868              	.LVL365:
 2869              	.LFB7:
 447:fips202.c     **** 
 448:fips202.c     **** 
 449:fips202.c     **** /*************************************************
 450:fips202.c     **** * Name:        keccak_absorb_once
 451:fips202.c     **** *
 452:fips202.c     **** * Description: Absorb step of Keccak;
 453:fips202.c     **** *              non-incremental, starts by zeroeing the state.
 454:fips202.c     **** *
 455:fips202.c     **** * Arguments:   - uint64_t *s: pointer to (uninitialized) output Keccak state
 456:fips202.c     **** *              - unsigned int r: rate in bytes (e.g., 168 for SHAKE128)
 457:fips202.c     **** *              - const uint8_t *in: pointer to input to be absorbed into s
 458:fips202.c     **** *              - size_t inlen: length of input in bytes
 459:fips202.c     **** *              - uint8_t p: domain-separation byte for different Keccak-derived functions
 460:fips202.c     **** **************************************************/
 461:fips202.c     **** static void keccak_absorb_once(uint64_t s[25],
 462:fips202.c     ****                                unsigned int r,
 463:fips202.c     ****                                const uint8_t *in,
 464:fips202.c     ****                                size_t inlen,
 465:fips202.c     ****                                uint8_t p)
 466:fips202.c     **** {
 2870              		.loc 1 466 1 is_stmt 1 view -0
 2871              		.cfi_startproc
 2872              		@ args = 4, pretend = 0, frame = 8
 2873              		@ frame_needed = 0, uses_anonymous_args = 0
 467:fips202.c     ****   unsigned int i;
 2874              		.loc 1 467 3 view .LVU1006
 468:fips202.c     **** 
 469:fips202.c     ****   for(i=0;i<25;i++)
 2875              		.loc 1 469 3 view .LVU1007
 2876              		.loc 1 469 12 discriminator 1 view .LVU1008
 466:fips202.c     ****   unsigned int i;
 2877              		.loc 1 466 1 is_stmt 0 view .LVU1009
 2878 0000 2DE9F74F 		push	{r0, r1, r2, r4, r5, r6, r7, r8, r9, r10, fp, lr}
 2879              	.LCFI7:
 2880              		.cfi_def_cfa_offset 48
 2881              		.cfi_offset 4, -36
 2882              		.cfi_offset 5, -32
 2883              		.cfi_offset 6, -28
 2884              		.cfi_offset 7, -24
 2885              		.cfi_offset 8, -20
 2886              		.cfi_offset 9, -16
 2887              		.cfi_offset 10, -12
 2888              		.cfi_offset 11, -8
 2889              		.cfi_offset 14, -4
 466:fips202.c     ****   unsigned int i;
 2890              		.loc 1 466 1 view .LVU1010
 2891 0004 0D46     		mov	r5, r1
 2892 0006 9046     		mov	r8, r2
 470:fips202.c     ****     s[i] = 0;
 2893              		.loc 1 470 10 view .LVU1011
 2894 0008 0021     		movs	r1, #0
 2895              	.LVL366:
 2896              		.loc 1 470 10 view .LVU1012
 2897 000a C822     		movs	r2, #200
 2898              	.LVL367:
 466:fips202.c     ****   unsigned int i;
 2899              		.loc 1 466 1 view .LVU1013
 2900 000c 1F46     		mov	r7, r3
 2901 000e 9DF83060 		ldrb	r6, [sp, #48]	@ zero_extendqisi2
 2902 0012 0446     		mov	r4, r0
 2903              		.loc 1 470 10 view .LVU1014
 2904 0014 FFF7FEFF 		bl	memset
 2905              	.LVL368:
 471:fips202.c     **** 
 472:fips202.c     ****   while(inlen >= r) {
 473:fips202.c     ****     for(i=0;i<r/8;i++)
 2906              		.loc 1 473 16 discriminator 1 view .LVU1015
 2907 0018 EB08     		lsrs	r3, r5, #3
 2908 001a 0193     		str	r3, [sp, #4]
 2909              	.L27:
 472:fips202.c     ****     for(i=0;i<r/8;i++)
 2910              		.loc 1 472 15 is_stmt 1 view .LVU1016
 2911 001c AF42     		cmp	r7, r5
 2912 001e 2BD2     		bcs	.L30
 474:fips202.c     ****       s[i] ^= load64(in+8*i);
 475:fips202.c     ****     in += r;
 476:fips202.c     ****     inlen -= r;
 477:fips202.c     ****     KeccakF1600_StatePermute(s);
 478:fips202.c     ****   }
 479:fips202.c     **** 
 480:fips202.c     ****   for(i=0;i<inlen;i++)
 2913              		.loc 1 480 8 is_stmt 0 view .LVU1017
 2914 0020 4FF0000B 		mov	fp, #0
 2915              	.L31:
 2916              	.LVL369:
 2917              		.loc 1 480 12 is_stmt 1 discriminator 1 view .LVU1018
 481:fips202.c     ****     s[i/8] ^= (uint64_t)in[i] << 8*(i%8);
 2918              		.loc 1 481 6 is_stmt 0 view .LVU1019
 2919 0024 2BF00700 		bic	r0, fp, #7
 2920 0028 04EB000C 		add	ip, r4, r0
 2921              		.loc 1 481 38 view .LVU1020
 2922 002c 0BF00701 		and	r1, fp, #7
 2923              		.loc 1 481 35 view .LVU1021
 2924 0030 C900     		lsls	r1, r1, #3
 480:fips202.c     ****     s[i/8] ^= (uint64_t)in[i] << 8*(i%8);
 2925              		.loc 1 480 12 discriminator 1 view .LVU1022
 2926 0032 5F45     		cmp	r7, fp
 2927              		.loc 1 481 6 view .LVU1023
 2928 0034 54F80090 		ldr	r9, [r4, r0]
 2929 0038 DCF804E0 		ldr	lr, [ip, #4]
 2930 003c A1F12003 		sub	r3, r1, #32
 2931 0040 C1F1200A 		rsb	r10, r1, #32
 480:fips202.c     ****     s[i/8] ^= (uint64_t)in[i] << 8*(i%8);
 2932              		.loc 1 480 12 discriminator 1 view .LVU1024
 2933 0044 49D1     		bne	.L32
 482:fips202.c     **** 
 483:fips202.c     ****   s[i/8] ^= (uint64_t)p << 8*(i%8);
 2934              		.loc 1 483 3 is_stmt 1 view .LVU1025
 2935              		.loc 1 483 25 is_stmt 0 view .LVU1026
 2936 0046 26FA0AFA 		lsr	r10, r6, r10
 2937 004a 06FA03F3 		lsl	r3, r6, r3
 484:fips202.c     ****   s[(r-1)/8] ^= 1ULL << 63;
 2938              		.loc 1 484 4 view .LVU1027
 2939 004e 013D     		subs	r5, r5, #1
 2940              	.LVL370:
 483:fips202.c     ****   s[(r-1)/8] ^= 1ULL << 63;
 2941              		.loc 1 483 25 view .LVU1028
 2942 0050 8E40     		lsls	r6, r6, r1
 2943 0052 43EA0A03 		orr	r3, r3, r10
 483:fips202.c     ****   s[(r-1)/8] ^= 1ULL << 63;
 2944              		.loc 1 483 10 view .LVU1029
 2945 0056 86EA0906 		eor	r6, r6, r9
 2946              		.loc 1 484 4 view .LVU1030
 2947 005a 25F00705 		bic	r5, r5, #7
 2948              	.LVL371:
 483:fips202.c     ****   s[(r-1)/8] ^= 1ULL << 63;
 2949              		.loc 1 483 10 view .LVU1031
 2950 005e 2650     		str	r6, [r4, r0]
 2951 0060 83EA0E03 		eor	r3, r3, lr
 2952              		.loc 1 484 4 view .LVU1032
 2953 0064 2C44     		add	r4, r4, r5
 2954              	.LVL372:
 483:fips202.c     ****   s[(r-1)/8] ^= 1ULL << 63;
 2955              		.loc 1 483 10 view .LVU1033
 2956 0066 CCF80430 		str	r3, [ip, #4]
 2957              		.loc 1 484 3 is_stmt 1 view .LVU1034
 2958              		.loc 1 484 14 is_stmt 0 view .LVU1035
 2959 006a 6368     		ldr	r3, [r4, #4]
 2960 006c 03F10043 		add	r3, r3, #-2147483648
 2961 0070 6360     		str	r3, [r4, #4]
 485:fips202.c     **** }
 2962              		.loc 1 485 1 view .LVU1036
 2963 0072 03B0     		add	sp, sp, #12
 2964              	.LCFI8:
 2965              		.cfi_remember_state
 2966              		.cfi_def_cfa_offset 36
 2967              		@ sp needed
 2968 0074 BDE8F08F 		pop	{r4, r5, r6, r7, r8, r9, r10, fp, pc}
 2969              	.LVL373:
 2970              	.L30:
 2971              	.LCFI9:
 2972              		.cfi_restore_state
 2973              		.loc 1 485 1 view .LVU1037
 2974 0078 A4F10803 		sub	r3, r4, #8
 473:fips202.c     ****       s[i] ^= load64(in+8*i);
 2975              		.loc 1 473 10 view .LVU1038
 2976 007c 4FF0000C 		mov	ip, #0
 2977              	.L29:
 2978              	.LVL374:
 474:fips202.c     ****     in += r;
 2979              		.loc 1 474 7 is_stmt 1 view .LVU1039
 2980              	.LBB4:
 2981              	.LBI4:
  22:fips202.c     ****   unsigned int i;
 2982              		.loc 1 22 17 view .LVU1040
 2983              	.LBB5:
  23:fips202.c     ****   uint64_t r = 0;
 2984              		.loc 1 23 3 view .LVU1041
  24:fips202.c     **** 
 2985              		.loc 1 24 3 view .LVU1042
  26:fips202.c     ****     r |= (uint64_t)x[i] << 8*i;
 2986              		.loc 1 26 3 view .LVU1043
  26:fips202.c     ****     r |= (uint64_t)x[i] << 8*i;
 2987              		.loc 1 26 12 discriminator 1 view .LVU1044
 2988              	.LBE5:
 2989              	.LBE4:
 473:fips202.c     ****       s[i] ^= load64(in+8*i);
 2990              		.loc 1 473 10 is_stmt 0 view .LVU1045
 2991 0080 0021     		movs	r1, #0
 2992 0082 08EBCC0B 		add	fp, r8, ip, lsl #3
 2993              	.LVL375:
 2994              	.LBB7:
 2995              	.LBB6:
  24:fips202.c     **** 
 2996              		.loc 1 24 12 view .LVU1046
 2997 0086 8946     		mov	r9, r1
 2998 0088 8E46     		mov	lr, r1
 2999              	.LVL376:
 3000              	.L28:
  27:fips202.c     **** 
 3001              		.loc 1 27 5 is_stmt 1 view .LVU1047
  27:fips202.c     **** 
 3002              		.loc 1 27 21 is_stmt 0 view .LVU1048
 3003 008a 1BF8010B 		ldrb	r0, [fp], #1	@ zero_extendqisi2
  27:fips202.c     **** 
 3004              		.loc 1 27 25 view .LVU1049
 3005 008e A1F1200A 		sub	r10, r1, #32
 3006 0092 C1F12002 		rsb	r2, r1, #32
 3007 0096 00FA0AFA 		lsl	r10, r0, r10
 3008 009a 20FA02F2 		lsr	r2, r0, r2
 3009 009e 8840     		lsls	r0, r0, r1
  26:fips202.c     ****     r |= (uint64_t)x[i] << 8*i;
 3010              		.loc 1 26 12 discriminator 1 view .LVU1050
 3011 00a0 0831     		adds	r1, r1, #8
  27:fips202.c     **** 
 3012              		.loc 1 27 25 view .LVU1051
 3013 00a2 4AEA0202 		orr	r2, r10, r2
  26:fips202.c     ****     r |= (uint64_t)x[i] << 8*i;
 3014              		.loc 1 26 12 discriminator 1 view .LVU1052
 3015 00a6 4029     		cmp	r1, #64
  27:fips202.c     **** 
 3016              		.loc 1 27 7 view .LVU1053
 3017 00a8 40EA0909 		orr	r9, r0, r9
 3018              	.LVL377:
  27:fips202.c     **** 
 3019              		.loc 1 27 7 view .LVU1054
 3020 00ac 42EA0E0E 		orr	lr, r2, lr
 3021              	.LVL378:
  26:fips202.c     ****     r |= (uint64_t)x[i] << 8*i;
 3022              		.loc 1 26 16 is_stmt 1 discriminator 3 view .LVU1055
  26:fips202.c     ****     r |= (uint64_t)x[i] << 8*i;
 3023              		.loc 1 26 12 discriminator 1 view .LVU1056
 3024 00b0 EBD1     		bne	.L28
  29:fips202.c     **** }
 3025              		.loc 1 29 3 view .LVU1057
 3026              	.LVL379:
  29:fips202.c     **** }
 3027              		.loc 1 29 3 is_stmt 0 view .LVU1058
 3028              	.LBE6:
 3029              	.LBE7:
 474:fips202.c     ****     in += r;
 3030              		.loc 1 474 12 discriminator 1 view .LVU1059
 3031 00b2 53F8081F 		ldr	r1, [r3, #8]!
 3032 00b6 5A68     		ldr	r2, [r3, #4]
 3033 00b8 81EA0901 		eor	r1, r1, r9
 3034 00bc 82EA0E02 		eor	r2, r2, lr
 3035 00c0 C3E90012 		strd	r1, r2, [r3]
 473:fips202.c     ****       s[i] ^= load64(in+8*i);
 3036              		.loc 1 473 20 is_stmt 1 discriminator 3 view .LVU1060
 473:fips202.c     ****       s[i] ^= load64(in+8*i);
 3037              		.loc 1 473 14 is_stmt 0 discriminator 1 view .LVU1061
 3038 00c4 019A     		ldr	r2, [sp, #4]
 473:fips202.c     ****       s[i] ^= load64(in+8*i);
 3039              		.loc 1 473 20 discriminator 3 view .LVU1062
 3040 00c6 0CF1010C 		add	ip, ip, #1
 3041              	.LVL380:
 473:fips202.c     ****       s[i] ^= load64(in+8*i);
 3042              		.loc 1 473 14 is_stmt 1 discriminator 1 view .LVU1063
 3043 00ca 6245     		cmp	r2, ip
 3044 00cc D8D8     		bhi	.L29
 475:fips202.c     ****     inlen -= r;
 3045              		.loc 1 475 5 view .LVU1064
 477:fips202.c     ****   }
 3046              		.loc 1 477 5 is_stmt 0 view .LVU1065
 3047 00ce 2046     		mov	r0, r4
 475:fips202.c     ****     inlen -= r;
 3048              		.loc 1 475 8 view .LVU1066
 3049 00d0 A844     		add	r8, r8, r5
 3050              	.LVL381:
 476:fips202.c     ****     KeccakF1600_StatePermute(s);
 3051              		.loc 1 476 5 is_stmt 1 view .LVU1067
 476:fips202.c     ****     KeccakF1600_StatePermute(s);
 3052              		.loc 1 476 11 is_stmt 0 view .LVU1068
 3053 00d2 7F1B     		subs	r7, r7, r5
 3054              	.LVL382:
 477:fips202.c     ****   }
 3055              		.loc 1 477 5 is_stmt 1 view .LVU1069
 3056 00d4 FFF7FEFF 		bl	KeccakF1600_StatePermute
 3057              	.LVL383:
 477:fips202.c     ****   }
 3058              		.loc 1 477 5 is_stmt 0 view .LVU1070
 3059 00d8 A0E7     		b	.L27
 3060              	.LVL384:
 3061              	.L32:
 481:fips202.c     **** 
 3062              		.loc 1 481 5 is_stmt 1 view .LVU1071
 481:fips202.c     **** 
 3063              		.loc 1 481 15 is_stmt 0 view .LVU1072
 3064 00da 18F80B20 		ldrb	r2, [r8, fp]	@ zero_extendqisi2
 481:fips202.c     **** 
 3065              		.loc 1 481 31 view .LVU1073
 3066 00de 02FA03F3 		lsl	r3, r2, r3
 3067 00e2 22FA0AFA 		lsr	r10, r2, r10
 3068 00e6 43EA0A03 		orr	r3, r3, r10
 3069 00ea 8A40     		lsls	r2, r2, r1
 481:fips202.c     **** 
 3070              		.loc 1 481 12 view .LVU1074
 3071 00ec 82EA0902 		eor	r2, r2, r9
 3072 00f0 83EA0E03 		eor	r3, r3, lr
 3073 00f4 2250     		str	r2, [r4, r0]
 480:fips202.c     ****     s[i/8] ^= (uint64_t)in[i] << 8*(i%8);
 3074              		.loc 1 480 20 discriminator 3 view .LVU1075
 3075 00f6 0BF1010B 		add	fp, fp, #1
 3076              	.LVL385:
 481:fips202.c     **** 
 3077              		.loc 1 481 12 view .LVU1076
 3078 00fa CCF80430 		str	r3, [ip, #4]
 480:fips202.c     ****     s[i/8] ^= (uint64_t)in[i] << 8*(i%8);
 3079              		.loc 1 480 20 is_stmt 1 discriminator 3 view .LVU1077
 3080              	.LVL386:
 480:fips202.c     ****     s[i/8] ^= (uint64_t)in[i] << 8*(i%8);
 3081              		.loc 1 480 20 is_stmt 0 discriminator 3 view .LVU1078
 3082 00fe 91E7     		b	.L31
 3083              		.cfi_endproc
 3084              	.LFE7:
 3086              		.section	.text.keccak_squeezeblocks,"ax",%progbits
 3087              		.align	1
 3088              		.syntax unified
 3089              		.thumb
 3090              		.thumb_func
 3092              	keccak_squeezeblocks:
 3093              	.LVL387:
 3094              	.LFB8:
 486:fips202.c     **** 
 487:fips202.c     **** /*************************************************
 488:fips202.c     **** * Name:        keccak_squeezeblocks
 489:fips202.c     **** *
 490:fips202.c     **** * Description: Squeeze step of Keccak. Squeezes full blocks of r bytes each.
 491:fips202.c     **** *              Modifies the state. Can be called multiple times to keep
 492:fips202.c     **** *              squeezing, i.e., is incremental. Assumes zero bytes of current
 493:fips202.c     **** *              block have already been squeezed.
 494:fips202.c     **** *
 495:fips202.c     **** * Arguments:   - uint8_t *out: pointer to output blocks
 496:fips202.c     **** *              - size_t nblocks: number of blocks to be squeezed (written to out)
 497:fips202.c     **** *              - uint64_t *s: pointer to input/output Keccak state
 498:fips202.c     **** *              - unsigned int r: rate in bytes (e.g., 168 for SHAKE128)
 499:fips202.c     **** **************************************************/
 500:fips202.c     **** static void keccak_squeezeblocks(uint8_t *out,
 501:fips202.c     ****                                  size_t nblocks,
 502:fips202.c     ****                                  uint64_t s[25],
 503:fips202.c     ****                                  unsigned int r)
 504:fips202.c     **** {
 3095              		.loc 1 504 1 is_stmt 1 view -0
 3096              		.cfi_startproc
 3097              		@ args = 0, pretend = 0, frame = 0
 3098              		@ frame_needed = 0, uses_anonymous_args = 0
 505:fips202.c     ****   unsigned int i;
 3099              		.loc 1 505 3 view .LVU1080
 506:fips202.c     **** 
 507:fips202.c     ****   while(nblocks) {
 3100              		.loc 1 507 3 view .LVU1081
 504:fips202.c     ****   unsigned int i;
 3101              		.loc 1 504 1 is_stmt 0 view .LVU1082
 3102 0000 2DE9F84F 		push	{r3, r4, r5, r6, r7, r8, r9, r10, fp, lr}
 3103              	.LCFI10:
 3104              		.cfi_def_cfa_offset 40
 3105              		.cfi_offset 3, -40
 3106              		.cfi_offset 4, -36
 3107              		.cfi_offset 5, -32
 3108              		.cfi_offset 6, -28
 3109              		.cfi_offset 7, -24
 3110              		.cfi_offset 8, -20
 3111              		.cfi_offset 9, -16
 3112              		.cfi_offset 10, -12
 3113              		.cfi_offset 11, -8
 3114              		.cfi_offset 14, -4
 504:fips202.c     ****   unsigned int i;
 3115              		.loc 1 504 1 view .LVU1083
 3116 0004 0646     		mov	r6, r0
 3117 0006 0D46     		mov	r5, r1
 3118 0008 1046     		mov	r0, r2
 3119              	.LVL388:
 504:fips202.c     ****   unsigned int i;
 3120              		.loc 1 504 1 view .LVU1084
 3121 000a 1F46     		mov	r7, r3
 508:fips202.c     ****     KeccakF1600_StatePermute(s);
 509:fips202.c     ****     for(i=0;i<r/8;i++)
 3122              		.loc 1 509 16 discriminator 1 view .LVU1085
 3123 000c 4FEAD308 		lsr	r8, r3, #3
 3124              	.LVL389:
 3125              	.L36:
 507:fips202.c     ****     KeccakF1600_StatePermute(s);
 3126              		.loc 1 507 9 is_stmt 1 view .LVU1086
 3127 0010 0DB9     		cbnz	r5, .L39
 510:fips202.c     ****       store64(out+8*i, s[i]);
 511:fips202.c     ****     out += r;
 512:fips202.c     ****     nblocks -= 1;
 513:fips202.c     ****   }
 514:fips202.c     **** }
 3128              		.loc 1 514 1 is_stmt 0 view .LVU1087
 3129 0012 BDE8F88F 		pop	{r3, r4, r5, r6, r7, r8, r9, r10, fp, pc}
 3130              	.LVL390:
 3131              	.L39:
 508:fips202.c     ****     for(i=0;i<r/8;i++)
 3132              		.loc 1 508 5 is_stmt 1 view .LVU1088
 3133 0016 FFF7FEFF 		bl	KeccakF1600_StatePermute
 3134              	.LVL391:
 509:fips202.c     ****       store64(out+8*i, s[i]);
 3135              		.loc 1 509 5 view .LVU1089
 509:fips202.c     ****       store64(out+8*i, s[i]);
 3136              		.loc 1 509 14 discriminator 1 view .LVU1090
 3137 001a A0F10802 		sub	r2, r0, #8
 509:fips202.c     ****       store64(out+8*i, s[i]);
 3138              		.loc 1 509 10 is_stmt 0 view .LVU1091
 3139 001e 0023     		movs	r3, #0
 3140              	.LVL392:
 3141              	.L38:
 510:fips202.c     ****       store64(out+8*i, s[i]);
 3142              		.loc 1 510 7 is_stmt 1 view .LVU1092
 3143 0020 52F808BF 		ldr	fp, [r2, #8]!
 3144 0024 D2F804A0 		ldr	r10, [r2, #4]
 3145              	.LVL393:
 3146              	.LBB10:
 3147              	.LBI10:
  40:fips202.c     ****   unsigned int i;
 3148              		.loc 1 40 13 view .LVU1093
 3149              	.LBB11:
  41:fips202.c     **** 
 3150              		.loc 1 41 3 view .LVU1094
  43:fips202.c     ****     x[i] = u >> 8*i;
 3151              		.loc 1 43 3 view .LVU1095
  43:fips202.c     ****     x[i] = u >> 8*i;
 3152              		.loc 1 43 12 discriminator 1 view .LVU1096
 3153 0028 06EBC309 		add	r9, r6, r3, lsl #3
 3154              	.LVL394:
  43:fips202.c     ****     x[i] = u >> 8*i;
 3155              		.loc 1 43 12 is_stmt 0 discriminator 1 view .LVU1097
 3156              	.LBE11:
 3157              	.LBE10:
 510:fips202.c     ****     out += r;
 3158              		.loc 1 510 7 view .LVU1098
 3159 002c 0024     		movs	r4, #0
 3160              	.LVL395:
 3161              	.L37:
 3162              	.LBB13:
 3163              	.LBB12:
  44:fips202.c     **** }
 3164              		.loc 1 44 5 is_stmt 1 view .LVU1099
  44:fips202.c     **** }
 3165              		.loc 1 44 14 is_stmt 0 view .LVU1100
 3166 002e C4F1200E 		rsb	lr, r4, #32
 3167 0032 A4F1200C 		sub	ip, r4, #32
 3168 0036 2BFA04F1 		lsr	r1, fp, r4
 3169 003a 0AFA0EFE 		lsl	lr, r10, lr
 3170 003e 41EA0E01 		orr	r1, r1, lr
 3171 0042 2AFA0CFC 		lsr	ip, r10, ip
  43:fips202.c     ****     x[i] = u >> 8*i;
 3172              		.loc 1 43 12 discriminator 1 view .LVU1101
 3173 0046 0834     		adds	r4, r4, #8
  44:fips202.c     **** }
 3174              		.loc 1 44 14 view .LVU1102
 3175 0048 41EA0C01 		orr	r1, r1, ip
  43:fips202.c     ****     x[i] = u >> 8*i;
 3176              		.loc 1 43 12 discriminator 1 view .LVU1103
 3177 004c 402C     		cmp	r4, #64
  44:fips202.c     **** }
 3178              		.loc 1 44 10 view .LVU1104
 3179 004e 09F8011B 		strb	r1, [r9], #1
  43:fips202.c     ****     x[i] = u >> 8*i;
 3180              		.loc 1 43 16 is_stmt 1 discriminator 3 view .LVU1105
  43:fips202.c     ****     x[i] = u >> 8*i;
 3181              		.loc 1 43 12 discriminator 1 view .LVU1106
 3182 0052 ECD1     		bne	.L37
 3183              	.LVL396:
  43:fips202.c     ****     x[i] = u >> 8*i;
 3184              		.loc 1 43 12 is_stmt 0 discriminator 1 view .LVU1107
 3185              	.LBE12:
 3186              	.LBE13:
 509:fips202.c     ****       store64(out+8*i, s[i]);
 3187              		.loc 1 509 20 is_stmt 1 discriminator 3 view .LVU1108
 3188 0054 0133     		adds	r3, r3, #1
 3189              	.LVL397:
 509:fips202.c     ****       store64(out+8*i, s[i]);
 3190              		.loc 1 509 14 discriminator 1 view .LVU1109
 3191 0056 4345     		cmp	r3, r8
 3192 0058 E2D3     		bcc	.L38
 511:fips202.c     ****     nblocks -= 1;
 3193              		.loc 1 511 5 view .LVU1110
 511:fips202.c     ****     nblocks -= 1;
 3194              		.loc 1 511 9 is_stmt 0 view .LVU1111
 3195 005a 3E44     		add	r6, r6, r7
 3196              	.LVL398:
 512:fips202.c     ****   }
 3197              		.loc 1 512 5 is_stmt 1 view .LVU1112
 512:fips202.c     ****   }
 3198              		.loc 1 512 13 is_stmt 0 view .LVU1113
 3199 005c 013D     		subs	r5, r5, #1
 3200              	.LVL399:
 512:fips202.c     ****   }
 3201              		.loc 1 512 13 view .LVU1114
 3202 005e D7E7     		b	.L36
 3203              		.cfi_endproc
 3204              	.LFE8:
 3206              		.section	.text.keccak_finalize.constprop.0,"ax",%progbits
 3207              		.align	1
 3208              		.syntax unified
 3209              		.thumb
 3210              		.thumb_func
 3212              	keccak_finalize.constprop.0:
 3213              	.LVL400:
 3214              	.LFB27:
 405:fips202.c     **** {
 3215              		.loc 1 405 13 is_stmt 1 view -0
 3216              		.cfi_startproc
 3217              		@ args = 0, pretend = 0, frame = 0
 3218              		@ frame_needed = 0, uses_anonymous_args = 0
 407:fips202.c     ****   s[r/8-1] ^= 1ULL << 63;
 3219              		.loc 1 407 3 view .LVU1116
 405:fips202.c     **** {
 3220              		.loc 1 405 13 is_stmt 0 view .LVU1117
 3221 0000 F0B5     		push	{r4, r5, r6, r7, lr}
 3222              	.LCFI11:
 3223              		.cfi_def_cfa_offset 20
 3224              		.cfi_offset 4, -20
 3225              		.cfi_offset 5, -16
 3226              		.cfi_offset 6, -12
 3227              		.cfi_offset 7, -8
 3228              		.cfi_offset 14, -4
 407:fips202.c     ****   s[r/8-1] ^= 1ULL << 63;
 3229              		.loc 1 407 4 view .LVU1118
 3230 0002 21F00705 		bic	r5, r1, #7
 407:fips202.c     ****   s[r/8-1] ^= 1ULL << 63;
 3231              		.loc 1 407 36 view .LVU1119
 3232 0006 01F00701 		and	r1, r1, #7
 3233              	.LVL401:
 407:fips202.c     ****   s[r/8-1] ^= 1ULL << 63;
 3234              		.loc 1 407 31 view .LVU1120
 3235 000a C900     		lsls	r1, r1, #3
 407:fips202.c     ****   s[r/8-1] ^= 1ULL << 63;
 3236              		.loc 1 407 27 view .LVU1121
 3237 000c 1F24     		movs	r4, #31
 3238 000e A1F12003 		sub	r3, r1, #32
 3239 0012 C1F12006 		rsb	r6, r1, #32
 407:fips202.c     ****   s[r/8-1] ^= 1ULL << 63;
 3240              		.loc 1 407 4 view .LVU1122
 3241 0016 4719     		adds	r7, r0, r5
 407:fips202.c     ****   s[r/8-1] ^= 1ULL << 63;
 3242              		.loc 1 407 27 view .LVU1123
 3243 0018 24FA06F6 		lsr	r6, r4, r6
 3244 001c 04FA03F3 		lsl	r3, r4, r3
 3245 0020 3343     		orrs	r3, r3, r6
 407:fips202.c     ****   s[r/8-1] ^= 1ULL << 63;
 3246              		.loc 1 407 12 view .LVU1124
 3247 0022 4659     		ldr	r6, [r0, r5]
 407:fips202.c     ****   s[r/8-1] ^= 1ULL << 63;
 3248              		.loc 1 407 27 view .LVU1125
 3249 0024 8C40     		lsls	r4, r4, r1
 407:fips202.c     ****   s[r/8-1] ^= 1ULL << 63;
 3250              		.loc 1 407 12 view .LVU1126
 3251 0026 7968     		ldr	r1, [r7, #4]
 3252 0028 6640     		eors	r6, r6, r4
 408:fips202.c     **** }
 3253              		.loc 1 408 4 view .LVU1127
 3254 002a 083A     		subs	r2, r2, #8
 3255              	.LVL402:
 407:fips202.c     ****   s[r/8-1] ^= 1ULL << 63;
 3256              		.loc 1 407 12 view .LVU1128
 3257 002c 4651     		str	r6, [r0, r5]
 3258 002e 5940     		eors	r1, r1, r3
 408:fips202.c     **** }
 3259              		.loc 1 408 4 view .LVU1129
 3260 0030 1044     		add	r0, r0, r2
 3261              	.LVL403:
 407:fips202.c     ****   s[r/8-1] ^= 1ULL << 63;
 3262              		.loc 1 407 12 view .LVU1130
 3263 0032 7960     		str	r1, [r7, #4]
 408:fips202.c     **** }
 3264              		.loc 1 408 3 is_stmt 1 view .LVU1131
 408:fips202.c     **** }
 3265              		.loc 1 408 12 is_stmt 0 view .LVU1132
 3266 0034 4368     		ldr	r3, [r0, #4]
 3267 0036 03F10043 		add	r3, r3, #-2147483648
 3268 003a 4360     		str	r3, [r0, #4]
 409:fips202.c     **** 
 3269              		.loc 1 409 1 view .LVU1133
 3270 003c F0BD     		pop	{r4, r5, r6, r7, pc}
 3271              		.cfi_endproc
 3272              	.LFE27:
 3274              		.section	.text.pqcrystals_kyber_fips202_ref_shake128_init,"ax",%progbits
 3275              		.align	1
 3276              		.global	pqcrystals_kyber_fips202_ref_shake128_init
 3277              		.syntax unified
 3278              		.thumb
 3279              		.thumb_func
 3281              	pqcrystals_kyber_fips202_ref_shake128_init:
 3282              	.LVL404:
 3283              	.LFB9:
 515:fips202.c     **** 
 516:fips202.c     **** /*************************************************
 517:fips202.c     **** * Name:        shake128_init
 518:fips202.c     **** *
 519:fips202.c     **** * Description: Initilizes Keccak state for use as SHAKE128 XOF
 520:fips202.c     **** *
 521:fips202.c     **** * Arguments:   - keccak_state *state: pointer to (uninitialized) Keccak state
 522:fips202.c     **** **************************************************/
 523:fips202.c     **** void shake128_init(keccak_state *state)
 524:fips202.c     **** {
 3284              		.loc 1 524 1 is_stmt 1 view -0
 3285              		.cfi_startproc
 3286              		@ args = 0, pretend = 0, frame = 0
 3287              		@ frame_needed = 0, uses_anonymous_args = 0
 525:fips202.c     ****   keccak_init(state->s);
 3288              		.loc 1 525 3 view .LVU1135
 524:fips202.c     ****   keccak_init(state->s);
 3289              		.loc 1 524 1 is_stmt 0 view .LVU1136
 3290 0000 10B5     		push	{r4, lr}
 3291              	.LCFI12:
 3292              		.cfi_def_cfa_offset 8
 3293              		.cfi_offset 4, -8
 3294              		.cfi_offset 14, -4
 3295              	.LBB16:
 3296              	.LBB17:
 357:fips202.c     **** }
 3297              		.loc 1 357 10 view .LVU1137
 3298 0002 C822     		movs	r2, #200
 3299              	.LBE17:
 3300              	.LBE16:
 524:fips202.c     ****   keccak_init(state->s);
 3301              		.loc 1 524 1 view .LVU1138
 3302 0004 0446     		mov	r4, r0
 3303              	.LVL405:
 3304              	.LBB19:
 3305              	.LBI16:
 353:fips202.c     **** {
 3306              		.loc 1 353 13 is_stmt 1 view .LVU1139
 3307              	.LBB18:
 355:fips202.c     ****   for(i=0;i<25;i++)
 3308              		.loc 1 355 3 view .LVU1140
 356:fips202.c     ****     s[i] = 0;
 3309              		.loc 1 356 3 view .LVU1141
 356:fips202.c     ****     s[i] = 0;
 3310              		.loc 1 356 12 discriminator 1 view .LVU1142
 357:fips202.c     **** }
 3311              		.loc 1 357 10 is_stmt 0 view .LVU1143
 3312 0006 0021     		movs	r1, #0
 3313 0008 FFF7FEFF 		bl	memset
 3314              	.LVL406:
 357:fips202.c     **** }
 3315              		.loc 1 357 10 view .LVU1144
 3316              	.LBE18:
 3317              	.LBE19:
 526:fips202.c     ****   state->pos = 0;
 3318              		.loc 1 526 3 is_stmt 1 view .LVU1145
 3319              		.loc 1 526 14 is_stmt 0 view .LVU1146
 3320 000c 0023     		movs	r3, #0
 3321 000e C4F8C830 		str	r3, [r4, #200]
 527:fips202.c     **** }
 3322              		.loc 1 527 1 view .LVU1147
 3323 0012 10BD     		pop	{r4, pc}
 3324              		.loc 1 527 1 view .LVU1148
 3325              		.cfi_endproc
 3326              	.LFE9:
 3328              		.section	.text.pqcrystals_kyber_fips202_ref_shake128_absorb,"ax",%progbits
 3329              		.align	1
 3330              		.global	pqcrystals_kyber_fips202_ref_shake128_absorb
 3331              		.syntax unified
 3332              		.thumb
 3333              		.thumb_func
 3335              	pqcrystals_kyber_fips202_ref_shake128_absorb:
 3336              	.LVL407:
 3337              	.LFB10:
 528:fips202.c     **** 
 529:fips202.c     **** /*************************************************
 530:fips202.c     **** * Name:        shake128_absorb
 531:fips202.c     **** *
 532:fips202.c     **** * Description: Absorb step of the SHAKE128 XOF; incremental.
 533:fips202.c     **** *
 534:fips202.c     **** * Arguments:   - keccak_state *state: pointer to (initialized) output Keccak state
 535:fips202.c     **** *              - const uint8_t *in: pointer to input to be absorbed into s
 536:fips202.c     **** *              - size_t inlen: length of input in bytes
 537:fips202.c     **** **************************************************/
 538:fips202.c     **** void shake128_absorb(keccak_state *state, const uint8_t *in, size_t inlen)
 539:fips202.c     **** {
 3338              		.loc 1 539 1 is_stmt 1 view -0
 3339              		.cfi_startproc
 3340              		@ args = 0, pretend = 0, frame = 0
 3341              		@ frame_needed = 0, uses_anonymous_args = 0
 540:fips202.c     ****   state->pos = keccak_absorb(state->s, state->pos, SHAKE128_RATE, in, inlen);
 3342              		.loc 1 540 3 view .LVU1150
 539:fips202.c     ****   state->pos = keccak_absorb(state->s, state->pos, SHAKE128_RATE, in, inlen);
 3343              		.loc 1 539 1 is_stmt 0 view .LVU1151
 3344 0000 13B5     		push	{r0, r1, r4, lr}
 3345              	.LCFI13:
 3346              		.cfi_def_cfa_offset 16
 3347              		.cfi_offset 4, -8
 3348              		.cfi_offset 14, -4
 3349              		.loc 1 540 16 view .LVU1152
 3350 0002 0092     		str	r2, [sp]
 539:fips202.c     ****   state->pos = keccak_absorb(state->s, state->pos, SHAKE128_RATE, in, inlen);
 3351              		.loc 1 539 1 view .LVU1153
 3352 0004 0B46     		mov	r3, r1
 3353              		.loc 1 540 16 view .LVU1154
 3354 0006 A822     		movs	r2, #168
 3355              	.LVL408:
 3356              		.loc 1 540 16 view .LVU1155
 3357 0008 D0F8C810 		ldr	r1, [r0, #200]
 3358              	.LVL409:
 539:fips202.c     ****   state->pos = keccak_absorb(state->s, state->pos, SHAKE128_RATE, in, inlen);
 3359              		.loc 1 539 1 view .LVU1156
 3360 000c 0446     		mov	r4, r0
 3361              		.loc 1 540 16 view .LVU1157
 3362 000e FFF7FEFF 		bl	keccak_absorb
 3363              	.LVL410:
 3364              		.loc 1 540 14 discriminator 1 view .LVU1158
 3365 0012 C4F8C800 		str	r0, [r4, #200]
 541:fips202.c     **** }
 3366              		.loc 1 541 1 view .LVU1159
 3367 0016 02B0     		add	sp, sp, #8
 3368              	.LCFI14:
 3369              		.cfi_def_cfa_offset 8
 3370              		@ sp needed
 3371 0018 10BD     		pop	{r4, pc}
 3372              		.loc 1 541 1 view .LVU1160
 3373              		.cfi_endproc
 3374              	.LFE10:
 3376              		.section	.text.pqcrystals_kyber_fips202_ref_shake128_finalize,"ax",%progbits
 3377              		.align	1
 3378              		.global	pqcrystals_kyber_fips202_ref_shake128_finalize
 3379              		.syntax unified
 3380              		.thumb
 3381              		.thumb_func
 3383              	pqcrystals_kyber_fips202_ref_shake128_finalize:
 3384              	.LVL411:
 3385              	.LFB11:
 542:fips202.c     **** 
 543:fips202.c     **** /*************************************************
 544:fips202.c     **** * Name:        shake128_finalize
 545:fips202.c     **** *
 546:fips202.c     **** * Description: Finalize absorb step of the SHAKE128 XOF.
 547:fips202.c     **** *
 548:fips202.c     **** * Arguments:   - keccak_state *state: pointer to Keccak state
 549:fips202.c     **** **************************************************/
 550:fips202.c     **** void shake128_finalize(keccak_state *state)
 551:fips202.c     **** {
 3386              		.loc 1 551 1 is_stmt 1 view -0
 3387              		.cfi_startproc
 3388              		@ args = 0, pretend = 0, frame = 0
 3389              		@ frame_needed = 0, uses_anonymous_args = 0
 552:fips202.c     ****   keccak_finalize(state->s, state->pos, SHAKE128_RATE, 0x1F);
 3390              		.loc 1 552 3 view .LVU1162
 551:fips202.c     ****   keccak_finalize(state->s, state->pos, SHAKE128_RATE, 0x1F);
 3391              		.loc 1 551 1 is_stmt 0 view .LVU1163
 3392 0000 10B5     		push	{r4, lr}
 3393              	.LCFI15:
 3394              		.cfi_def_cfa_offset 8
 3395              		.cfi_offset 4, -8
 3396              		.cfi_offset 14, -4
 3397              		.loc 1 552 3 view .LVU1164
 3398 0002 D0F8C810 		ldr	r1, [r0, #200]
 551:fips202.c     ****   keccak_finalize(state->s, state->pos, SHAKE128_RATE, 0x1F);
 3399              		.loc 1 551 1 view .LVU1165
 3400 0006 0446     		mov	r4, r0
 3401              		.loc 1 552 3 view .LVU1166
 3402 0008 A822     		movs	r2, #168
 3403 000a FFF7FEFF 		bl	keccak_finalize.constprop.0
 3404              	.LVL412:
 553:fips202.c     ****   state->pos = SHAKE128_RATE;
 3405              		.loc 1 553 3 is_stmt 1 view .LVU1167
 3406              		.loc 1 553 14 is_stmt 0 view .LVU1168
 3407 000e A823     		movs	r3, #168
 3408 0010 C4F8C830 		str	r3, [r4, #200]
 554:fips202.c     **** }
 3409              		.loc 1 554 1 view .LVU1169
 3410 0014 10BD     		pop	{r4, pc}
 3411              		.loc 1 554 1 view .LVU1170
 3412              		.cfi_endproc
 3413              	.LFE11:
 3415              		.section	.text.pqcrystals_kyber_fips202_ref_shake128_squeeze,"ax",%progbits
 3416              		.align	1
 3417              		.global	pqcrystals_kyber_fips202_ref_shake128_squeeze
 3418              		.syntax unified
 3419              		.thumb
 3420              		.thumb_func
 3422              	pqcrystals_kyber_fips202_ref_shake128_squeeze:
 3423              	.LVL413:
 3424              	.LFB12:
 555:fips202.c     **** 
 556:fips202.c     **** /*************************************************
 557:fips202.c     **** * Name:        shake128_squeeze
 558:fips202.c     **** *
 559:fips202.c     **** * Description: Squeeze step of SHAKE128 XOF. Squeezes arbitraily many
 560:fips202.c     **** *              bytes. Can be called multiple times to keep squeezing.
 561:fips202.c     **** *
 562:fips202.c     **** * Arguments:   - uint8_t *out: pointer to output blocks
 563:fips202.c     **** *              - size_t outlen : number of bytes to be squeezed (written to output)
 564:fips202.c     **** *              - keccak_state *s: pointer to input/output Keccak state
 565:fips202.c     **** **************************************************/
 566:fips202.c     **** void shake128_squeeze(uint8_t *out, size_t outlen, keccak_state *state)
 567:fips202.c     **** {
 3425              		.loc 1 567 1 is_stmt 1 view -0
 3426              		.cfi_startproc
 3427              		@ args = 0, pretend = 0, frame = 0
 3428              		@ frame_needed = 0, uses_anonymous_args = 0
 568:fips202.c     ****   state->pos = keccak_squeeze(out, outlen, state->s, state->pos, SHAKE128_RATE);
 3429              		.loc 1 568 3 view .LVU1172
 567:fips202.c     ****   state->pos = keccak_squeeze(out, outlen, state->s, state->pos, SHAKE128_RATE);
 3430              		.loc 1 567 1 is_stmt 0 view .LVU1173
 3431 0000 13B5     		push	{r0, r1, r4, lr}
 3432              	.LCFI16:
 3433              		.cfi_def_cfa_offset 16
 3434              		.cfi_offset 4, -8
 3435              		.cfi_offset 14, -4
 3436              		.loc 1 568 16 view .LVU1174
 3437 0002 A823     		movs	r3, #168
 3438 0004 0093     		str	r3, [sp]
 3439 0006 D2F8C830 		ldr	r3, [r2, #200]
 567:fips202.c     ****   state->pos = keccak_squeeze(out, outlen, state->s, state->pos, SHAKE128_RATE);
 3440              		.loc 1 567 1 view .LVU1175
 3441 000a 1446     		mov	r4, r2
 3442              		.loc 1 568 16 view .LVU1176
 3443 000c FFF7FEFF 		bl	keccak_squeeze
 3444              	.LVL414:
 3445              		.loc 1 568 14 discriminator 1 view .LVU1177
 3446 0010 C4F8C800 		str	r0, [r4, #200]
 569:fips202.c     **** }
 3447              		.loc 1 569 1 view .LVU1178
 3448 0014 02B0     		add	sp, sp, #8
 3449              	.LCFI17:
 3450              		.cfi_def_cfa_offset 8
 3451              		@ sp needed
 3452 0016 10BD     		pop	{r4, pc}
 3453              		.loc 1 569 1 view .LVU1179
 3454              		.cfi_endproc
 3455              	.LFE12:
 3457              		.section	.text.pqcrystals_kyber_fips202_ref_shake128_absorb_once,"ax",%progbits
 3458              		.align	1
 3459              		.global	pqcrystals_kyber_fips202_ref_shake128_absorb_once
 3460              		.syntax unified
 3461              		.thumb
 3462              		.thumb_func
 3464              	pqcrystals_kyber_fips202_ref_shake128_absorb_once:
 3465              	.LVL415:
 3466              	.LFB13:
 570:fips202.c     **** 
 571:fips202.c     **** /*************************************************
 572:fips202.c     **** * Name:        shake128_absorb_once
 573:fips202.c     **** *
 574:fips202.c     **** * Description: Initialize, absorb into and finalize SHAKE128 XOF; non-incremental.
 575:fips202.c     **** *
 576:fips202.c     **** * Arguments:   - keccak_state *state: pointer to (uninitialized) output Keccak state
 577:fips202.c     **** *              - const uint8_t *in: pointer to input to be absorbed into s
 578:fips202.c     **** *              - size_t inlen: length of input in bytes
 579:fips202.c     **** **************************************************/
 580:fips202.c     **** void shake128_absorb_once(keccak_state *state, const uint8_t *in, size_t inlen)
 581:fips202.c     **** {
 3467              		.loc 1 581 1 is_stmt 1 view -0
 3468              		.cfi_startproc
 3469              		@ args = 0, pretend = 0, frame = 0
 3470              		@ frame_needed = 0, uses_anonymous_args = 0
 582:fips202.c     ****   keccak_absorb_once(state->s, SHAKE128_RATE, in, inlen, 0x1F);
 3471              		.loc 1 582 3 view .LVU1181
 581:fips202.c     ****   keccak_absorb_once(state->s, SHAKE128_RATE, in, inlen, 0x1F);
 3472              		.loc 1 581 1 is_stmt 0 view .LVU1182
 3473 0000 13B5     		push	{r0, r1, r4, lr}
 3474              	.LCFI18:
 3475              		.cfi_def_cfa_offset 16
 3476              		.cfi_offset 4, -8
 3477              		.cfi_offset 14, -4
 581:fips202.c     ****   keccak_absorb_once(state->s, SHAKE128_RATE, in, inlen, 0x1F);
 3478              		.loc 1 581 1 view .LVU1183
 3479 0002 1346     		mov	r3, r2
 3480              		.loc 1 582 3 view .LVU1184
 3481 0004 1F22     		movs	r2, #31
 3482              	.LVL416:
 3483              		.loc 1 582 3 view .LVU1185
 3484 0006 0092     		str	r2, [sp]
 3485 0008 0A46     		mov	r2, r1
 3486 000a A821     		movs	r1, #168
 3487              	.LVL417:
 581:fips202.c     ****   keccak_absorb_once(state->s, SHAKE128_RATE, in, inlen, 0x1F);
 3488              		.loc 1 581 1 view .LVU1186
 3489 000c 0446     		mov	r4, r0
 3490              		.loc 1 582 3 view .LVU1187
 3491 000e FFF7FEFF 		bl	keccak_absorb_once
 3492              	.LVL418:
 583:fips202.c     ****   state->pos = SHAKE128_RATE;
 3493              		.loc 1 583 3 is_stmt 1 view .LVU1188
 3494              		.loc 1 583 14 is_stmt 0 view .LVU1189
 3495 0012 A823     		movs	r3, #168
 3496 0014 C4F8C830 		str	r3, [r4, #200]
 584:fips202.c     **** }
 3497              		.loc 1 584 1 view .LVU1190
 3498 0018 02B0     		add	sp, sp, #8
 3499              	.LCFI19:
 3500              		.cfi_def_cfa_offset 8
 3501              		@ sp needed
 3502 001a 10BD     		pop	{r4, pc}
 3503              		.loc 1 584 1 view .LVU1191
 3504              		.cfi_endproc
 3505              	.LFE13:
 3507              		.section	.text.pqcrystals_kyber_fips202_ref_shake128_squeezeblocks,"ax",%progbits
 3508              		.align	1
 3509              		.global	pqcrystals_kyber_fips202_ref_shake128_squeezeblocks
 3510              		.syntax unified
 3511              		.thumb
 3512              		.thumb_func
 3514              	pqcrystals_kyber_fips202_ref_shake128_squeezeblocks:
 3515              	.LVL419:
 3516              	.LFB14:
 585:fips202.c     **** 
 586:fips202.c     **** /*************************************************
 587:fips202.c     **** * Name:        shake128_squeezeblocks
 588:fips202.c     **** *
 589:fips202.c     **** * Description: Squeeze step of SHAKE128 XOF. Squeezes full blocks of
 590:fips202.c     **** *              SHAKE128_RATE bytes each. Can be called multiple times
 591:fips202.c     **** *              to keep squeezing. Assumes new block has not yet been
 592:fips202.c     **** *              started (state->pos = SHAKE128_RATE).
 593:fips202.c     **** *
 594:fips202.c     **** * Arguments:   - uint8_t *out: pointer to output blocks
 595:fips202.c     **** *              - size_t nblocks: number of blocks to be squeezed (written to output)
 596:fips202.c     **** *              - keccak_state *s: pointer to input/output Keccak state
 597:fips202.c     **** **************************************************/
 598:fips202.c     **** void shake128_squeezeblocks(uint8_t *out, size_t nblocks, keccak_state *state)
 599:fips202.c     **** {
 3517              		.loc 1 599 1 is_stmt 1 view -0
 3518              		.cfi_startproc
 3519              		@ args = 0, pretend = 0, frame = 0
 3520              		@ frame_needed = 0, uses_anonymous_args = 0
 3521              		@ link register save eliminated.
 600:fips202.c     ****   keccak_squeezeblocks(out, nblocks, state->s, SHAKE128_RATE);
 3522              		.loc 1 600 3 view .LVU1193
 3523 0000 A823     		movs	r3, #168
 3524 0002 FFF7FEBF 		b	keccak_squeezeblocks
 3525              	.LVL420:
 3526              		.loc 1 600 3 is_stmt 0 view .LVU1194
 3527              		.cfi_endproc
 3528              	.LFE14:
 3530              		.section	.text.pqcrystals_kyber_fips202_ref_shake256_init,"ax",%progbits
 3531              		.align	1
 3532              		.global	pqcrystals_kyber_fips202_ref_shake256_init
 3533              		.syntax unified
 3534              		.thumb
 3535              		.thumb_func
 3537              	pqcrystals_kyber_fips202_ref_shake256_init:
 3538              	.LFB26:
 3539              		.cfi_startproc
 601:fips202.c     **** }
 602:fips202.c     **** 
 603:fips202.c     **** /*************************************************
 604:fips202.c     **** * Name:        shake256_init
 605:fips202.c     **** *
 606:fips202.c     **** * Description: Initilizes Keccak state for use as SHAKE256 XOF
 607:fips202.c     **** *
 608:fips202.c     **** * Arguments:   - keccak_state *state: pointer to (uninitialized) Keccak state
 609:fips202.c     **** **************************************************/
 610:fips202.c     **** void shake256_init(keccak_state *state)
 3540              		.loc 1 610 6 is_stmt 1 view -0
 3541              		@ args = 0, pretend = 0, frame = 0
 3542              		@ frame_needed = 0, uses_anonymous_args = 0
 3543              		@ link register save eliminated.
 3544 0000 FFF7FEBF 		b	pqcrystals_kyber_fips202_ref_shake128_init
 3545              		.cfi_endproc
 3546              	.LFE26:
 3548              		.section	.text.pqcrystals_kyber_fips202_ref_shake256_absorb,"ax",%progbits
 3549              		.align	1
 3550              		.global	pqcrystals_kyber_fips202_ref_shake256_absorb
 3551              		.syntax unified
 3552              		.thumb
 3553              		.thumb_func
 3555              	pqcrystals_kyber_fips202_ref_shake256_absorb:
 3556              	.LVL421:
 3557              	.LFB16:
 611:fips202.c     **** {
 612:fips202.c     ****   keccak_init(state->s);
 613:fips202.c     ****   state->pos = 0;
 614:fips202.c     **** }
 615:fips202.c     **** 
 616:fips202.c     **** /*************************************************
 617:fips202.c     **** * Name:        shake256_absorb
 618:fips202.c     **** *
 619:fips202.c     **** * Description: Absorb step of the SHAKE256 XOF; incremental.
 620:fips202.c     **** *
 621:fips202.c     **** * Arguments:   - keccak_state *state: pointer to (initialized) output Keccak state
 622:fips202.c     **** *              - const uint8_t *in: pointer to input to be absorbed into s
 623:fips202.c     **** *              - size_t inlen: length of input in bytes
 624:fips202.c     **** **************************************************/
 625:fips202.c     **** void shake256_absorb(keccak_state *state, const uint8_t *in, size_t inlen)
 626:fips202.c     **** {
 3558              		.loc 1 626 1 view -0
 3559              		.cfi_startproc
 3560              		@ args = 0, pretend = 0, frame = 0
 3561              		@ frame_needed = 0, uses_anonymous_args = 0
 627:fips202.c     ****   state->pos = keccak_absorb(state->s, state->pos, SHAKE256_RATE, in, inlen);
 3562              		.loc 1 627 3 view .LVU1197
 626:fips202.c     ****   state->pos = keccak_absorb(state->s, state->pos, SHAKE256_RATE, in, inlen);
 3563              		.loc 1 626 1 is_stmt 0 view .LVU1198
 3564 0000 13B5     		push	{r0, r1, r4, lr}
 3565              	.LCFI20:
 3566              		.cfi_def_cfa_offset 16
 3567              		.cfi_offset 4, -8
 3568              		.cfi_offset 14, -4
 3569              		.loc 1 627 16 view .LVU1199
 3570 0002 0092     		str	r2, [sp]
 626:fips202.c     ****   state->pos = keccak_absorb(state->s, state->pos, SHAKE256_RATE, in, inlen);
 3571              		.loc 1 626 1 view .LVU1200
 3572 0004 0B46     		mov	r3, r1
 3573              		.loc 1 627 16 view .LVU1201
 3574 0006 8822     		movs	r2, #136
 3575              	.LVL422:
 3576              		.loc 1 627 16 view .LVU1202
 3577 0008 D0F8C810 		ldr	r1, [r0, #200]
 3578              	.LVL423:
 626:fips202.c     ****   state->pos = keccak_absorb(state->s, state->pos, SHAKE256_RATE, in, inlen);
 3579              		.loc 1 626 1 view .LVU1203
 3580 000c 0446     		mov	r4, r0
 3581              		.loc 1 627 16 view .LVU1204
 3582 000e FFF7FEFF 		bl	keccak_absorb
 3583              	.LVL424:
 3584              		.loc 1 627 14 discriminator 1 view .LVU1205
 3585 0012 C4F8C800 		str	r0, [r4, #200]
 628:fips202.c     **** }
 3586              		.loc 1 628 1 view .LVU1206
 3587 0016 02B0     		add	sp, sp, #8
 3588              	.LCFI21:
 3589              		.cfi_def_cfa_offset 8
 3590              		@ sp needed
 3591 0018 10BD     		pop	{r4, pc}
 3592              		.loc 1 628 1 view .LVU1207
 3593              		.cfi_endproc
 3594              	.LFE16:
 3596              		.section	.text.pqcrystals_kyber_fips202_ref_shake256_finalize,"ax",%progbits
 3597              		.align	1
 3598              		.global	pqcrystals_kyber_fips202_ref_shake256_finalize
 3599              		.syntax unified
 3600              		.thumb
 3601              		.thumb_func
 3603              	pqcrystals_kyber_fips202_ref_shake256_finalize:
 3604              	.LVL425:
 3605              	.LFB17:
 629:fips202.c     **** 
 630:fips202.c     **** /*************************************************
 631:fips202.c     **** * Name:        shake256_finalize
 632:fips202.c     **** *
 633:fips202.c     **** * Description: Finalize absorb step of the SHAKE256 XOF.
 634:fips202.c     **** *
 635:fips202.c     **** * Arguments:   - keccak_state *state: pointer to Keccak state
 636:fips202.c     **** **************************************************/
 637:fips202.c     **** void shake256_finalize(keccak_state *state)
 638:fips202.c     **** {
 3606              		.loc 1 638 1 is_stmt 1 view -0
 3607              		.cfi_startproc
 3608              		@ args = 0, pretend = 0, frame = 0
 3609              		@ frame_needed = 0, uses_anonymous_args = 0
 639:fips202.c     ****   keccak_finalize(state->s, state->pos, SHAKE256_RATE, 0x1F);
 3610              		.loc 1 639 3 view .LVU1209
 638:fips202.c     ****   keccak_finalize(state->s, state->pos, SHAKE256_RATE, 0x1F);
 3611              		.loc 1 638 1 is_stmt 0 view .LVU1210
 3612 0000 10B5     		push	{r4, lr}
 3613              	.LCFI22:
 3614              		.cfi_def_cfa_offset 8
 3615              		.cfi_offset 4, -8
 3616              		.cfi_offset 14, -4
 3617              		.loc 1 639 3 view .LVU1211
 3618 0002 D0F8C810 		ldr	r1, [r0, #200]
 638:fips202.c     ****   keccak_finalize(state->s, state->pos, SHAKE256_RATE, 0x1F);
 3619              		.loc 1 638 1 view .LVU1212
 3620 0006 0446     		mov	r4, r0
 3621              		.loc 1 639 3 view .LVU1213
 3622 0008 8822     		movs	r2, #136
 3623 000a FFF7FEFF 		bl	keccak_finalize.constprop.0
 3624              	.LVL426:
 640:fips202.c     ****   state->pos = SHAKE256_RATE;
 3625              		.loc 1 640 3 is_stmt 1 view .LVU1214
 3626              		.loc 1 640 14 is_stmt 0 view .LVU1215
 3627 000e 8823     		movs	r3, #136
 3628 0010 C4F8C830 		str	r3, [r4, #200]
 641:fips202.c     **** }
 3629              		.loc 1 641 1 view .LVU1216
 3630 0014 10BD     		pop	{r4, pc}
 3631              		.loc 1 641 1 view .LVU1217
 3632              		.cfi_endproc
 3633              	.LFE17:
 3635              		.section	.text.pqcrystals_kyber_fips202_ref_shake256_squeeze,"ax",%progbits
 3636              		.align	1
 3637              		.global	pqcrystals_kyber_fips202_ref_shake256_squeeze
 3638              		.syntax unified
 3639              		.thumb
 3640              		.thumb_func
 3642              	pqcrystals_kyber_fips202_ref_shake256_squeeze:
 3643              	.LVL427:
 3644              	.LFB18:
 642:fips202.c     **** 
 643:fips202.c     **** /*************************************************
 644:fips202.c     **** * Name:        shake256_squeeze
 645:fips202.c     **** *
 646:fips202.c     **** * Description: Squeeze step of SHAKE256 XOF. Squeezes arbitraily many
 647:fips202.c     **** *              bytes. Can be called multiple times to keep squeezing.
 648:fips202.c     **** *
 649:fips202.c     **** * Arguments:   - uint8_t *out: pointer to output blocks
 650:fips202.c     **** *              - size_t outlen : number of bytes to be squeezed (written to output)
 651:fips202.c     **** *              - keccak_state *s: pointer to input/output Keccak state
 652:fips202.c     **** **************************************************/
 653:fips202.c     **** void shake256_squeeze(uint8_t *out, size_t outlen, keccak_state *state)
 654:fips202.c     **** {
 3645              		.loc 1 654 1 is_stmt 1 view -0
 3646              		.cfi_startproc
 3647              		@ args = 0, pretend = 0, frame = 0
 3648              		@ frame_needed = 0, uses_anonymous_args = 0
 655:fips202.c     ****   state->pos = keccak_squeeze(out, outlen, state->s, state->pos, SHAKE256_RATE);
 3649              		.loc 1 655 3 view .LVU1219
 654:fips202.c     ****   state->pos = keccak_squeeze(out, outlen, state->s, state->pos, SHAKE256_RATE);
 3650              		.loc 1 654 1 is_stmt 0 view .LVU1220
 3651 0000 13B5     		push	{r0, r1, r4, lr}
 3652              	.LCFI23:
 3653              		.cfi_def_cfa_offset 16
 3654              		.cfi_offset 4, -8
 3655              		.cfi_offset 14, -4
 3656              		.loc 1 655 16 view .LVU1221
 3657 0002 8823     		movs	r3, #136
 3658 0004 0093     		str	r3, [sp]
 3659 0006 D2F8C830 		ldr	r3, [r2, #200]
 654:fips202.c     ****   state->pos = keccak_squeeze(out, outlen, state->s, state->pos, SHAKE256_RATE);
 3660              		.loc 1 654 1 view .LVU1222
 3661 000a 1446     		mov	r4, r2
 3662              		.loc 1 655 16 view .LVU1223
 3663 000c FFF7FEFF 		bl	keccak_squeeze
 3664              	.LVL428:
 3665              		.loc 1 655 14 discriminator 1 view .LVU1224
 3666 0010 C4F8C800 		str	r0, [r4, #200]
 656:fips202.c     **** }
 3667              		.loc 1 656 1 view .LVU1225
 3668 0014 02B0     		add	sp, sp, #8
 3669              	.LCFI24:
 3670              		.cfi_def_cfa_offset 8
 3671              		@ sp needed
 3672 0016 10BD     		pop	{r4, pc}
 3673              		.loc 1 656 1 view .LVU1226
 3674              		.cfi_endproc
 3675              	.LFE18:
 3677              		.section	.text.pqcrystals_kyber_fips202_ref_shake256_absorb_once,"ax",%progbits
 3678              		.align	1
 3679              		.global	pqcrystals_kyber_fips202_ref_shake256_absorb_once
 3680              		.syntax unified
 3681              		.thumb
 3682              		.thumb_func
 3684              	pqcrystals_kyber_fips202_ref_shake256_absorb_once:
 3685              	.LVL429:
 3686              	.LFB19:
 657:fips202.c     **** 
 658:fips202.c     **** /*************************************************
 659:fips202.c     **** * Name:        shake256_absorb_once
 660:fips202.c     **** *
 661:fips202.c     **** * Description: Initialize, absorb into and finalize SHAKE256 XOF; non-incremental.
 662:fips202.c     **** *
 663:fips202.c     **** * Arguments:   - keccak_state *state: pointer to (uninitialized) output Keccak state
 664:fips202.c     **** *              - const uint8_t *in: pointer to input to be absorbed into s
 665:fips202.c     **** *              - size_t inlen: length of input in bytes
 666:fips202.c     **** **************************************************/
 667:fips202.c     **** void shake256_absorb_once(keccak_state *state, const uint8_t *in, size_t inlen)
 668:fips202.c     **** {
 3687              		.loc 1 668 1 is_stmt 1 view -0
 3688              		.cfi_startproc
 3689              		@ args = 0, pretend = 0, frame = 0
 3690              		@ frame_needed = 0, uses_anonymous_args = 0
 669:fips202.c     ****   keccak_absorb_once(state->s, SHAKE256_RATE, in, inlen, 0x1F);
 3691              		.loc 1 669 3 view .LVU1228
 668:fips202.c     ****   keccak_absorb_once(state->s, SHAKE256_RATE, in, inlen, 0x1F);
 3692              		.loc 1 668 1 is_stmt 0 view .LVU1229
 3693 0000 13B5     		push	{r0, r1, r4, lr}
 3694              	.LCFI25:
 3695              		.cfi_def_cfa_offset 16
 3696              		.cfi_offset 4, -8
 3697              		.cfi_offset 14, -4
 668:fips202.c     ****   keccak_absorb_once(state->s, SHAKE256_RATE, in, inlen, 0x1F);
 3698              		.loc 1 668 1 view .LVU1230
 3699 0002 1346     		mov	r3, r2
 3700              		.loc 1 669 3 view .LVU1231
 3701 0004 1F22     		movs	r2, #31
 3702              	.LVL430:
 3703              		.loc 1 669 3 view .LVU1232
 3704 0006 0092     		str	r2, [sp]
 3705 0008 0A46     		mov	r2, r1
 3706 000a 8821     		movs	r1, #136
 3707              	.LVL431:
 668:fips202.c     ****   keccak_absorb_once(state->s, SHAKE256_RATE, in, inlen, 0x1F);
 3708              		.loc 1 668 1 view .LVU1233
 3709 000c 0446     		mov	r4, r0
 3710              		.loc 1 669 3 view .LVU1234
 3711 000e FFF7FEFF 		bl	keccak_absorb_once
 3712              	.LVL432:
 670:fips202.c     ****   state->pos = SHAKE256_RATE;
 3713              		.loc 1 670 3 is_stmt 1 view .LVU1235
 3714              		.loc 1 670 14 is_stmt 0 view .LVU1236
 3715 0012 8823     		movs	r3, #136
 3716 0014 C4F8C830 		str	r3, [r4, #200]
 671:fips202.c     **** }
 3717              		.loc 1 671 1 view .LVU1237
 3718 0018 02B0     		add	sp, sp, #8
 3719              	.LCFI26:
 3720              		.cfi_def_cfa_offset 8
 3721              		@ sp needed
 3722 001a 10BD     		pop	{r4, pc}
 3723              		.loc 1 671 1 view .LVU1238
 3724              		.cfi_endproc
 3725              	.LFE19:
 3727              		.section	.text.pqcrystals_kyber_fips202_ref_shake256_squeezeblocks,"ax",%progbits
 3728              		.align	1
 3729              		.global	pqcrystals_kyber_fips202_ref_shake256_squeezeblocks
 3730              		.syntax unified
 3731              		.thumb
 3732              		.thumb_func
 3734              	pqcrystals_kyber_fips202_ref_shake256_squeezeblocks:
 3735              	.LVL433:
 3736              	.LFB20:
 672:fips202.c     **** 
 673:fips202.c     **** /*************************************************
 674:fips202.c     **** * Name:        shake256_squeezeblocks
 675:fips202.c     **** *
 676:fips202.c     **** * Description: Squeeze step of SHAKE256 XOF. Squeezes full blocks of
 677:fips202.c     **** *              SHAKE256_RATE bytes each. Can be called multiple times
 678:fips202.c     **** *              to keep squeezing. Assumes next block has not yet been
 679:fips202.c     **** *              started (state->pos = SHAKE256_RATE).
 680:fips202.c     **** *
 681:fips202.c     **** * Arguments:   - uint8_t *out: pointer to output blocks
 682:fips202.c     **** *              - size_t nblocks: number of blocks to be squeezed (written to output)
 683:fips202.c     **** *              - keccak_state *s: pointer to input/output Keccak state
 684:fips202.c     **** **************************************************/
 685:fips202.c     **** void shake256_squeezeblocks(uint8_t *out, size_t nblocks, keccak_state *state)
 686:fips202.c     **** {
 3737              		.loc 1 686 1 is_stmt 1 view -0
 3738              		.cfi_startproc
 3739              		@ args = 0, pretend = 0, frame = 0
 3740              		@ frame_needed = 0, uses_anonymous_args = 0
 3741              		@ link register save eliminated.
 687:fips202.c     ****   keccak_squeezeblocks(out, nblocks, state->s, SHAKE256_RATE);
 3742              		.loc 1 687 3 view .LVU1240
 3743 0000 8823     		movs	r3, #136
 3744 0002 FFF7FEBF 		b	keccak_squeezeblocks
 3745              	.LVL434:
 3746              		.loc 1 687 3 is_stmt 0 view .LVU1241
 3747              		.cfi_endproc
 3748              	.LFE20:
 3750              		.section	.text.pqcrystals_kyber_fips202_ref_shake128,"ax",%progbits
 3751              		.align	1
 3752              		.global	pqcrystals_kyber_fips202_ref_shake128
 3753              		.syntax unified
 3754              		.thumb
 3755              		.thumb_func
 3757              	pqcrystals_kyber_fips202_ref_shake128:
 3758              	.LVL435:
 3759              	.LFB21:
 688:fips202.c     **** }
 689:fips202.c     **** 
 690:fips202.c     **** /*************************************************
 691:fips202.c     **** * Name:        shake128
 692:fips202.c     **** *
 693:fips202.c     **** * Description: SHAKE128 XOF with non-incremental API
 694:fips202.c     **** *
 695:fips202.c     **** * Arguments:   - uint8_t *out: pointer to output
 696:fips202.c     **** *              - size_t outlen: requested output length in bytes
 697:fips202.c     **** *              - const uint8_t *in: pointer to input
 698:fips202.c     **** *              - size_t inlen: length of input in bytes
 699:fips202.c     **** **************************************************/
 700:fips202.c     **** void shake128(uint8_t *out, size_t outlen, const uint8_t *in, size_t inlen)
 701:fips202.c     **** {
 3760              		.loc 1 701 1 is_stmt 1 view -0
 3761              		.cfi_startproc
 3762              		@ args = 0, pretend = 0, frame = 208
 3763              		@ frame_needed = 0, uses_anonymous_args = 0
 702:fips202.c     ****   size_t nblocks;
 3764              		.loc 1 702 3 view .LVU1243
 703:fips202.c     ****   keccak_state state;
 3765              		.loc 1 703 3 view .LVU1244
 704:fips202.c     **** 
 705:fips202.c     ****   shake128_absorb_once(&state, in, inlen);
 3766              		.loc 1 705 3 view .LVU1245
 701:fips202.c     ****   size_t nblocks;
 3767              		.loc 1 701 1 is_stmt 0 view .LVU1246
 3768 0000 F0B5     		push	{r4, r5, r6, r7, lr}
 3769              	.LCFI27:
 3770              		.cfi_def_cfa_offset 20
 3771              		.cfi_offset 4, -20
 3772              		.cfi_offset 5, -16
 3773              		.cfi_offset 6, -12
 3774              		.cfi_offset 7, -8
 3775              		.cfi_offset 14, -4
 3776 0002 B5B0     		sub	sp, sp, #212
 3777              	.LCFI28:
 3778              		.cfi_def_cfa_offset 232
 701:fips202.c     ****   size_t nblocks;
 3779              		.loc 1 701 1 view .LVU1247
 3780 0004 0546     		mov	r5, r0
 3781 0006 0E46     		mov	r6, r1
 3782              		.loc 1 705 3 view .LVU1248
 3783 0008 6846     		mov	r0, sp
 3784              	.LVL436:
 701:fips202.c     ****   size_t nblocks;
 3785              		.loc 1 701 1 view .LVU1249
 3786 000a 1146     		mov	r1, r2
 3787              	.LVL437:
 706:fips202.c     ****   nblocks = outlen/SHAKE128_RATE;
 3788              		.loc 1 706 11 view .LVU1250
 3789 000c A827     		movs	r7, #168
 705:fips202.c     ****   nblocks = outlen/SHAKE128_RATE;
 3790              		.loc 1 705 3 view .LVU1251
 3791 000e 1A46     		mov	r2, r3
 3792              	.LVL438:
 705:fips202.c     ****   nblocks = outlen/SHAKE128_RATE;
 3793              		.loc 1 705 3 view .LVU1252
 3794 0010 FFF7FEFF 		bl	pqcrystals_kyber_fips202_ref_shake128_absorb_once
 3795              	.LVL439:
 3796              		.loc 1 706 3 is_stmt 1 view .LVU1253
 3797              		.loc 1 706 11 is_stmt 0 view .LVU1254
 3798 0014 B6FBF7F4 		udiv	r4, r6, r7
 3799              	.LVL440:
 707:fips202.c     ****   shake128_squeezeblocks(out, nblocks, &state);
 3800              		.loc 1 707 3 is_stmt 1 view .LVU1255
 3801 0018 6A46     		mov	r2, sp
 3802 001a 2146     		mov	r1, r4
 3803 001c 2846     		mov	r0, r5
 708:fips202.c     ****   outlen -= nblocks*SHAKE128_RATE;
 709:fips202.c     ****   out += nblocks*SHAKE128_RATE;
 710:fips202.c     ****   shake128_squeeze(out, outlen, &state);
 3804              		.loc 1 710 3 is_stmt 0 view .LVU1256
 3805 001e 7C43     		muls	r4, r7, r4
 3806              	.LVL441:
 707:fips202.c     ****   shake128_squeezeblocks(out, nblocks, &state);
 3807              		.loc 1 707 3 view .LVU1257
 3808 0020 FFF7FEFF 		bl	pqcrystals_kyber_fips202_ref_shake128_squeezeblocks
 3809              	.LVL442:
 708:fips202.c     ****   outlen -= nblocks*SHAKE128_RATE;
 3810              		.loc 1 708 3 is_stmt 1 view .LVU1258
 709:fips202.c     ****   shake128_squeeze(out, outlen, &state);
 3811              		.loc 1 709 3 view .LVU1259
 3812              		.loc 1 710 3 view .LVU1260
 3813 0024 6A46     		mov	r2, sp
 3814 0026 311B     		subs	r1, r6, r4
 3815 0028 2819     		adds	r0, r5, r4
 3816 002a FFF7FEFF 		bl	pqcrystals_kyber_fips202_ref_shake128_squeeze
 3817              	.LVL443:
 711:fips202.c     **** }
 3818              		.loc 1 711 1 is_stmt 0 view .LVU1261
 3819 002e 35B0     		add	sp, sp, #212
 3820              	.LCFI29:
 3821              		.cfi_def_cfa_offset 20
 3822              		@ sp needed
 3823 0030 F0BD     		pop	{r4, r5, r6, r7, pc}
 3824              		.loc 1 711 1 view .LVU1262
 3825              		.cfi_endproc
 3826              	.LFE21:
 3828              		.section	.text.pqcrystals_kyber_fips202_ref_shake256,"ax",%progbits
 3829              		.align	1
 3830              		.global	pqcrystals_kyber_fips202_ref_shake256
 3831              		.syntax unified
 3832              		.thumb
 3833              		.thumb_func
 3835              	pqcrystals_kyber_fips202_ref_shake256:
 3836              	.LVL444:
 3837              	.LFB22:
 712:fips202.c     **** 
 713:fips202.c     **** /*************************************************
 714:fips202.c     **** * Name:        shake256
 715:fips202.c     **** *
 716:fips202.c     **** * Description: SHAKE256 XOF with non-incremental API
 717:fips202.c     **** *
 718:fips202.c     **** * Arguments:   - uint8_t *out: pointer to output
 719:fips202.c     **** *              - size_t outlen: requested output length in bytes
 720:fips202.c     **** *              - const uint8_t *in: pointer to input
 721:fips202.c     **** *              - size_t inlen: length of input in bytes
 722:fips202.c     **** **************************************************/
 723:fips202.c     **** void shake256(uint8_t *out, size_t outlen, const uint8_t *in, size_t inlen)
 724:fips202.c     **** {
 3838              		.loc 1 724 1 is_stmt 1 view -0
 3839              		.cfi_startproc
 3840              		@ args = 0, pretend = 0, frame = 208
 3841              		@ frame_needed = 0, uses_anonymous_args = 0
 725:fips202.c     ****   size_t nblocks;
 3842              		.loc 1 725 3 view .LVU1264
 726:fips202.c     ****   keccak_state state;
 3843              		.loc 1 726 3 view .LVU1265
 727:fips202.c     **** 
 728:fips202.c     ****   shake256_absorb_once(&state, in, inlen);
 3844              		.loc 1 728 3 view .LVU1266
 724:fips202.c     ****   size_t nblocks;
 3845              		.loc 1 724 1 is_stmt 0 view .LVU1267
 3846 0000 F0B5     		push	{r4, r5, r6, r7, lr}
 3847              	.LCFI30:
 3848              		.cfi_def_cfa_offset 20
 3849              		.cfi_offset 4, -20
 3850              		.cfi_offset 5, -16
 3851              		.cfi_offset 6, -12
 3852              		.cfi_offset 7, -8
 3853              		.cfi_offset 14, -4
 3854 0002 B5B0     		sub	sp, sp, #212
 3855              	.LCFI31:
 3856              		.cfi_def_cfa_offset 232
 724:fips202.c     ****   size_t nblocks;
 3857              		.loc 1 724 1 view .LVU1268
 3858 0004 0546     		mov	r5, r0
 3859 0006 0E46     		mov	r6, r1
 3860              		.loc 1 728 3 view .LVU1269
 3861 0008 6846     		mov	r0, sp
 3862              	.LVL445:
 724:fips202.c     ****   size_t nblocks;
 3863              		.loc 1 724 1 view .LVU1270
 3864 000a 1146     		mov	r1, r2
 3865              	.LVL446:
 729:fips202.c     ****   nblocks = outlen/SHAKE256_RATE;
 3866              		.loc 1 729 11 view .LVU1271
 3867 000c 8827     		movs	r7, #136
 728:fips202.c     ****   nblocks = outlen/SHAKE256_RATE;
 3868              		.loc 1 728 3 view .LVU1272
 3869 000e 1A46     		mov	r2, r3
 3870              	.LVL447:
 728:fips202.c     ****   nblocks = outlen/SHAKE256_RATE;
 3871              		.loc 1 728 3 view .LVU1273
 3872 0010 FFF7FEFF 		bl	pqcrystals_kyber_fips202_ref_shake256_absorb_once
 3873              	.LVL448:
 3874              		.loc 1 729 3 is_stmt 1 view .LVU1274
 3875              		.loc 1 729 11 is_stmt 0 view .LVU1275
 3876 0014 B6FBF7F4 		udiv	r4, r6, r7
 3877              	.LVL449:
 730:fips202.c     ****   shake256_squeezeblocks(out, nblocks, &state);
 3878              		.loc 1 730 3 is_stmt 1 view .LVU1276
 3879 0018 6A46     		mov	r2, sp
 3880 001a 2146     		mov	r1, r4
 3881 001c 2846     		mov	r0, r5
 731:fips202.c     ****   outlen -= nblocks*SHAKE256_RATE;
 732:fips202.c     ****   out += nblocks*SHAKE256_RATE;
 733:fips202.c     ****   shake256_squeeze(out, outlen, &state);
 3882              		.loc 1 733 3 is_stmt 0 view .LVU1277
 3883 001e 7C43     		muls	r4, r7, r4
 3884              	.LVL450:
 730:fips202.c     ****   shake256_squeezeblocks(out, nblocks, &state);
 3885              		.loc 1 730 3 view .LVU1278
 3886 0020 FFF7FEFF 		bl	pqcrystals_kyber_fips202_ref_shake256_squeezeblocks
 3887              	.LVL451:
 731:fips202.c     ****   outlen -= nblocks*SHAKE256_RATE;
 3888              		.loc 1 731 3 is_stmt 1 view .LVU1279
 732:fips202.c     ****   shake256_squeeze(out, outlen, &state);
 3889              		.loc 1 732 3 view .LVU1280
 3890              		.loc 1 733 3 view .LVU1281
 3891 0024 6A46     		mov	r2, sp
 3892 0026 311B     		subs	r1, r6, r4
 3893 0028 2819     		adds	r0, r5, r4
 3894 002a FFF7FEFF 		bl	pqcrystals_kyber_fips202_ref_shake256_squeeze
 3895              	.LVL452:
 734:fips202.c     **** }
 3896              		.loc 1 734 1 is_stmt 0 view .LVU1282
 3897 002e 35B0     		add	sp, sp, #212
 3898              	.LCFI32:
 3899              		.cfi_def_cfa_offset 20
 3900              		@ sp needed
 3901 0030 F0BD     		pop	{r4, r5, r6, r7, pc}
 3902              		.loc 1 734 1 view .LVU1283
 3903              		.cfi_endproc
 3904              	.LFE22:
 3906              		.section	.text.pqcrystals_kyber_fips202_ref_sha3_256,"ax",%progbits
 3907              		.align	1
 3908              		.global	pqcrystals_kyber_fips202_ref_sha3_256
 3909              		.syntax unified
 3910              		.thumb
 3911              		.thumb_func
 3913              	pqcrystals_kyber_fips202_ref_sha3_256:
 3914              	.LVL453:
 3915              	.LFB23:
 735:fips202.c     **** 
 736:fips202.c     **** /*************************************************
 737:fips202.c     **** * Name:        sha3_256
 738:fips202.c     **** *
 739:fips202.c     **** * Description: SHA3-256 with non-incremental API
 740:fips202.c     **** *
 741:fips202.c     **** * Arguments:   - uint8_t *h: pointer to output (32 bytes)
 742:fips202.c     **** *              - const uint8_t *in: pointer to input
 743:fips202.c     **** *              - size_t inlen: length of input in bytes
 744:fips202.c     **** **************************************************/
 745:fips202.c     **** void sha3_256(uint8_t h[32], const uint8_t *in, size_t inlen)
 746:fips202.c     **** {
 3916              		.loc 1 746 1 is_stmt 1 view -0
 3917              		.cfi_startproc
 3918              		@ args = 0, pretend = 0, frame = 200
 3919              		@ frame_needed = 0, uses_anonymous_args = 0
 747:fips202.c     ****   unsigned int i;
 3920              		.loc 1 747 3 view .LVU1285
 748:fips202.c     ****   uint64_t s[25];
 3921              		.loc 1 748 3 view .LVU1286
 749:fips202.c     **** 
 750:fips202.c     ****   keccak_absorb_once(s, SHA3_256_RATE, in, inlen, 0x06);
 3922              		.loc 1 750 3 view .LVU1287
 746:fips202.c     ****   unsigned int i;
 3923              		.loc 1 746 1 is_stmt 0 view .LVU1288
 3924 0000 F0B5     		push	{r4, r5, r6, r7, lr}
 3925              	.LCFI33:
 3926              		.cfi_def_cfa_offset 20
 3927              		.cfi_offset 4, -20
 3928              		.cfi_offset 5, -16
 3929              		.cfi_offset 6, -12
 3930              		.cfi_offset 7, -8
 3931              		.cfi_offset 14, -4
 3932 0002 B5B0     		sub	sp, sp, #212
 3933              	.LCFI34:
 3934              		.cfi_def_cfa_offset 232
 746:fips202.c     ****   unsigned int i;
 3935              		.loc 1 746 1 view .LVU1289
 3936 0004 1346     		mov	r3, r2
 3937              		.loc 1 750 3 view .LVU1290
 3938 0006 0622     		movs	r2, #6
 3939              	.LVL454:
 3940              		.loc 1 750 3 view .LVU1291
 3941 0008 0092     		str	r2, [sp]
 746:fips202.c     ****   unsigned int i;
 3942              		.loc 1 746 1 view .LVU1292
 3943 000a 0446     		mov	r4, r0
 3944              		.loc 1 750 3 view .LVU1293
 3945 000c 0A46     		mov	r2, r1
 3946 000e 02A8     		add	r0, sp, #8
 3947              	.LVL455:
 3948              		.loc 1 750 3 view .LVU1294
 3949 0010 8821     		movs	r1, #136
 3950              	.LVL456:
 3951              		.loc 1 750 3 view .LVU1295
 3952 0012 FFF7FEFF 		bl	keccak_absorb_once
 3953              	.LVL457:
 751:fips202.c     ****   KeccakF1600_StatePermute(s);
 3954              		.loc 1 751 3 is_stmt 1 view .LVU1296
 3955 0016 02A8     		add	r0, sp, #8
 3956 0018 FFF7FEFF 		bl	KeccakF1600_StatePermute
 3957              	.LVL458:
 752:fips202.c     ****   for(i=0;i<4;i++)
 3958              		.loc 1 752 3 view .LVU1297
 3959              		.loc 1 752 12 discriminator 1 view .LVU1298
 751:fips202.c     ****   KeccakF1600_StatePermute(s);
 3960              		.loc 1 751 3 is_stmt 0 view .LVU1299
 3961 001c 0021     		movs	r1, #0
 3962              	.LVL459:
 3963              	.L59:
 753:fips202.c     ****     store64(h+8*i,s[i]);
 3964              		.loc 1 753 5 is_stmt 1 view .LVU1300
 3965 001e D0E900EC 		ldrd	lr, ip, [r0]
 3966 0022 6718     		adds	r7, r4, r1
 3967 0024 0830     		adds	r0, r0, #8
 3968              	.LVL460:
 3969              	.LBB22:
 3970              	.LBI22:
  40:fips202.c     ****   unsigned int i;
 3971              		.loc 1 40 13 view .LVU1301
 3972              	.LBB23:
  41:fips202.c     **** 
 3973              		.loc 1 41 3 view .LVU1302
  43:fips202.c     ****     x[i] = u >> 8*i;
 3974              		.loc 1 43 3 view .LVU1303
  43:fips202.c     ****     x[i] = u >> 8*i;
 3975              		.loc 1 43 12 discriminator 1 view .LVU1304
 3976              	.LBE23:
 3977              	.LBE22:
 3978              		.loc 1 753 5 is_stmt 0 view .LVU1305
 3979 0026 0023     		movs	r3, #0
 3980              	.LVL461:
 3981              	.L58:
 3982              	.LBB25:
 3983              	.LBB24:
  44:fips202.c     **** }
 3984              		.loc 1 44 5 is_stmt 1 view .LVU1306
  44:fips202.c     **** }
 3985              		.loc 1 44 14 is_stmt 0 view .LVU1307
 3986 0028 C3F12006 		rsb	r6, r3, #32
 3987 002c A3F12005 		sub	r5, r3, #32
 3988 0030 2EFA03F2 		lsr	r2, lr, r3
 3989 0034 0CFA06F6 		lsl	r6, ip, r6
 3990 0038 3243     		orrs	r2, r2, r6
 3991 003a 2CFA05F5 		lsr	r5, ip, r5
  43:fips202.c     ****     x[i] = u >> 8*i;
 3992              		.loc 1 43 12 discriminator 1 view .LVU1308
 3993 003e 0833     		adds	r3, r3, #8
  44:fips202.c     **** }
 3994              		.loc 1 44 14 view .LVU1309
 3995 0040 2A43     		orrs	r2, r2, r5
  43:fips202.c     ****     x[i] = u >> 8*i;
 3996              		.loc 1 43 12 discriminator 1 view .LVU1310
 3997 0042 402B     		cmp	r3, #64
  44:fips202.c     **** }
 3998              		.loc 1 44 10 view .LVU1311
 3999 0044 07F8012B 		strb	r2, [r7], #1
  43:fips202.c     ****     x[i] = u >> 8*i;
 4000              		.loc 1 43 16 is_stmt 1 discriminator 3 view .LVU1312
  43:fips202.c     ****     x[i] = u >> 8*i;
 4001              		.loc 1 43 12 discriminator 1 view .LVU1313
 4002 0048 EED1     		bne	.L58
 4003              	.LVL462:
  43:fips202.c     ****     x[i] = u >> 8*i;
 4004              		.loc 1 43 12 is_stmt 0 discriminator 1 view .LVU1314
 4005              	.LBE24:
 4006              	.LBE25:
 752:fips202.c     ****     store64(h+8*i,s[i]);
 4007              		.loc 1 752 16 is_stmt 1 discriminator 3 view .LVU1315
 752:fips202.c     ****     store64(h+8*i,s[i]);
 4008              		.loc 1 752 12 discriminator 1 view .LVU1316
 4009 004a 0831     		adds	r1, r1, #8
 4010 004c 2029     		cmp	r1, #32
 4011 004e E6D1     		bne	.L59
 754:fips202.c     **** }
 4012              		.loc 1 754 1 is_stmt 0 view .LVU1317
 4013 0050 35B0     		add	sp, sp, #212
 4014              	.LCFI35:
 4015              		.cfi_def_cfa_offset 20
 4016              		@ sp needed
 4017 0052 F0BD     		pop	{r4, r5, r6, r7, pc}
 4018              		.loc 1 754 1 view .LVU1318
 4019              		.cfi_endproc
 4020              	.LFE23:
 4022              		.section	.text.pqcrystals_kyber_fips202_ref_sha3_512,"ax",%progbits
 4023              		.align	1
 4024              		.global	pqcrystals_kyber_fips202_ref_sha3_512
 4025              		.syntax unified
 4026              		.thumb
 4027              		.thumb_func
 4029              	pqcrystals_kyber_fips202_ref_sha3_512:
 4030              	.LVL463:
 4031              	.LFB24:
 755:fips202.c     **** 
 756:fips202.c     **** /*************************************************
 757:fips202.c     **** * Name:        sha3_512
 758:fips202.c     **** *
 759:fips202.c     **** * Description: SHA3-512 with non-incremental API
 760:fips202.c     **** *
 761:fips202.c     **** * Arguments:   - uint8_t *h: pointer to output (64 bytes)
 762:fips202.c     **** *              - const uint8_t *in: pointer to input
 763:fips202.c     **** *              - size_t inlen: length of input in bytes
 764:fips202.c     **** **************************************************/
 765:fips202.c     **** void sha3_512(uint8_t h[64], const uint8_t *in, size_t inlen)
 766:fips202.c     **** {
 4032              		.loc 1 766 1 is_stmt 1 view -0
 4033              		.cfi_startproc
 4034              		@ args = 0, pretend = 0, frame = 200
 4035              		@ frame_needed = 0, uses_anonymous_args = 0
 767:fips202.c     ****   unsigned int i;
 4036              		.loc 1 767 3 view .LVU1320
 768:fips202.c     ****   uint64_t s[25];
 4037              		.loc 1 768 3 view .LVU1321
 769:fips202.c     **** 
 770:fips202.c     ****   keccak_absorb_once(s, SHA3_512_RATE, in, inlen, 0x06);
 4038              		.loc 1 770 3 view .LVU1322
 766:fips202.c     ****   unsigned int i;
 4039              		.loc 1 766 1 is_stmt 0 view .LVU1323
 4040 0000 F0B5     		push	{r4, r5, r6, r7, lr}
 4041              	.LCFI36:
 4042              		.cfi_def_cfa_offset 20
 4043              		.cfi_offset 4, -20
 4044              		.cfi_offset 5, -16
 4045              		.cfi_offset 6, -12
 4046              		.cfi_offset 7, -8
 4047              		.cfi_offset 14, -4
 4048 0002 B5B0     		sub	sp, sp, #212
 4049              	.LCFI37:
 4050              		.cfi_def_cfa_offset 232
 766:fips202.c     ****   unsigned int i;
 4051              		.loc 1 766 1 view .LVU1324
 4052 0004 1346     		mov	r3, r2
 4053              		.loc 1 770 3 view .LVU1325
 4054 0006 0622     		movs	r2, #6
 4055              	.LVL464:
 4056              		.loc 1 770 3 view .LVU1326
 4057 0008 0092     		str	r2, [sp]
 766:fips202.c     ****   unsigned int i;
 4058              		.loc 1 766 1 view .LVU1327
 4059 000a 0446     		mov	r4, r0
 4060              		.loc 1 770 3 view .LVU1328
 4061 000c 0A46     		mov	r2, r1
 4062 000e 02A8     		add	r0, sp, #8
 4063              	.LVL465:
 4064              		.loc 1 770 3 view .LVU1329
 4065 0010 4821     		movs	r1, #72
 4066              	.LVL466:
 4067              		.loc 1 770 3 view .LVU1330
 4068 0012 FFF7FEFF 		bl	keccak_absorb_once
 4069              	.LVL467:
 771:fips202.c     ****   KeccakF1600_StatePermute(s);
 4070              		.loc 1 771 3 is_stmt 1 view .LVU1331
 4071 0016 02A8     		add	r0, sp, #8
 4072 0018 FFF7FEFF 		bl	KeccakF1600_StatePermute
 4073              	.LVL468:
 772:fips202.c     ****   for(i=0;i<8;i++)
 4074              		.loc 1 772 3 view .LVU1332
 4075              		.loc 1 772 12 discriminator 1 view .LVU1333
 771:fips202.c     ****   KeccakF1600_StatePermute(s);
 4076              		.loc 1 771 3 is_stmt 0 view .LVU1334
 4077 001c 0021     		movs	r1, #0
 4078              	.LVL469:
 4079              	.L64:
 773:fips202.c     ****     store64(h+8*i,s[i]);
 4080              		.loc 1 773 5 is_stmt 1 view .LVU1335
 4081 001e D0E900EC 		ldrd	lr, ip, [r0]
 4082 0022 6718     		adds	r7, r4, r1
 4083 0024 0830     		adds	r0, r0, #8
 4084              	.LVL470:
 4085              	.LBB28:
 4086              	.LBI28:
  40:fips202.c     ****   unsigned int i;
 4087              		.loc 1 40 13 view .LVU1336
 4088              	.LBB29:
  41:fips202.c     **** 
 4089              		.loc 1 41 3 view .LVU1337
  43:fips202.c     ****     x[i] = u >> 8*i;
 4090              		.loc 1 43 3 view .LVU1338
  43:fips202.c     ****     x[i] = u >> 8*i;
 4091              		.loc 1 43 12 discriminator 1 view .LVU1339
 4092              	.LBE29:
 4093              	.LBE28:
 4094              		.loc 1 773 5 is_stmt 0 view .LVU1340
 4095 0026 0023     		movs	r3, #0
 4096              	.LVL471:
 4097              	.L63:
 4098              	.LBB31:
 4099              	.LBB30:
  44:fips202.c     **** }
 4100              		.loc 1 44 5 is_stmt 1 view .LVU1341
  44:fips202.c     **** }
 4101              		.loc 1 44 14 is_stmt 0 view .LVU1342
 4102 0028 C3F12006 		rsb	r6, r3, #32
 4103 002c A3F12005 		sub	r5, r3, #32
 4104 0030 2EFA03F2 		lsr	r2, lr, r3
 4105 0034 0CFA06F6 		lsl	r6, ip, r6
 4106 0038 3243     		orrs	r2, r2, r6
 4107 003a 2CFA05F5 		lsr	r5, ip, r5
  43:fips202.c     ****     x[i] = u >> 8*i;
 4108              		.loc 1 43 12 discriminator 1 view .LVU1343
 4109 003e 0833     		adds	r3, r3, #8
  44:fips202.c     **** }
 4110              		.loc 1 44 14 view .LVU1344
 4111 0040 2A43     		orrs	r2, r2, r5
  43:fips202.c     ****     x[i] = u >> 8*i;
 4112              		.loc 1 43 12 discriminator 1 view .LVU1345
 4113 0042 402B     		cmp	r3, #64
  44:fips202.c     **** }
 4114              		.loc 1 44 10 view .LVU1346
 4115 0044 07F8012B 		strb	r2, [r7], #1
  43:fips202.c     ****     x[i] = u >> 8*i;
 4116              		.loc 1 43 16 is_stmt 1 discriminator 3 view .LVU1347
  43:fips202.c     ****     x[i] = u >> 8*i;
 4117              		.loc 1 43 12 discriminator 1 view .LVU1348
 4118 0048 EED1     		bne	.L63
 4119              	.LVL472:
  43:fips202.c     ****     x[i] = u >> 8*i;
